

Microchip MPLAB XC8 Assembler V2.32 build 20210201212658 
                                                                                               Fri Feb 04 20:10:37 2022

Microchip MPLAB XC8 C Compiler v2.32 (Free license) build 20210201212658 Og1 
     1                           	processor	16F877A
     2                           	pagewidth 120
     3                           	opt	flic
     4                           	psect	idataBANK1,global,class=CODE,delta=2,noexec
     5                           	psect	strings,global,class=STRING,delta=2,noexec
     6                           	psect	cinit,global,class=CODE,merge=1,delta=2
     7                           	psect	bssBANK0,global,class=BANK0,space=1,delta=1,noexec
     8                           	psect	dataBANK1,global,class=BANK1,space=1,delta=1,noexec
     9                           	psect	inittext,global,class=CODE,delta=2
    10                           	psect	cstackCOMMON,global,class=COMMON,space=1,delta=1,noexec
    11                           	psect	cstackBANK0,global,class=BANK0,space=1,delta=1,noexec
    12                           	psect	maintext,global,class=CODE,split=1,delta=2
    13                           	psect	text1,local,class=CODE,merge=1,delta=2,group=1
    14                           	psect	text2,local,class=CODE,merge=1,delta=2
    15                           	psect	text3,local,class=CODE,merge=1,delta=2,group=1
    16                           	psect	text4,local,class=CODE,merge=1,delta=2,group=1
    17                           	psect	text5,local,class=CODE,merge=1,delta=2,group=1
    18                           	psect	text6,local,class=CODE,merge=1,delta=2,group=1
    19                           	psect	text7,local,class=CODE,merge=1,delta=2,group=1
    20                           	psect	text8,local,class=CODE,merge=1,delta=2
    21                           	psect	text9,local,class=CODE,merge=1,delta=2
    22                           	psect	text10,local,class=CODE,merge=1,delta=2
    23                           	psect	text11,local,class=CODE,merge=1,delta=2,group=1
    24                           	psect	text12,local,class=CODE,merge=1,delta=2,group=1
    25                           	psect	text13,local,class=CODE,merge=1,delta=2
    26                           	psect	text14,local,class=CODE,merge=1,delta=2
    27                           	psect	text15,local,class=CODE,merge=1,delta=2
    28                           	psect	text16,local,class=CODE,merge=1,delta=2
    29                           	psect	text17,local,class=CODE,merge=1,delta=2
    30                           	psect	idloc,global,abs,ovrld,class=IDLOC,space=5,delta=2,noexec
    31                           	psect	config,global,abs,ovrld,class=CONFIG,space=4,delta=2,noexec
    32                           	dabs	1,0x7E,2
    33  0000                     
    34                           ; Version 2.40
    35                           ; Generated 17/11/2021 GMT
    36                           ; 
    37                           ; Copyright © 2021, Microchip Technology Inc. and its subsidiaries ("Microchip")
    38                           ; All rights reserved.
    39                           ; 
    40                           ; This software is developed by Microchip Technology Inc. and its subsidiaries ("Microch
      +                          ip").
    41                           ; 
    42                           ; Redistribution and use in source and binary forms, with or without modification, are
    43                           ; permitted provided that the following conditions are met:
    44                           ; 
    45                           ;     1. Redistributions of source code must retain the above copyright notice, this lis
      +                          t of
    46                           ;        conditions and the following disclaimer.
    47                           ; 
    48                           ;     2. Redistributions in binary form must reproduce the above copyright notice, this 
      +                          list
    49                           ;        of conditions and the following disclaimer in the documentation and/or other
    50                           ;        materials provided with the distribution. Publication is not required when
    51                           ;        this file is used in an embedded application.
    52                           ; 
    53                           ;     3. Microchip's name may not be used to endorse or promote products derived from th
      +                          is
    54                           ;        software without specific prior written permission.
    55                           ; 
    56                           ; THIS SOFTWARE IS PROVIDED BY MICROCHIP "AS IS" AND ANY EXPRESS OR IMPLIED WARRANTIES,
    57                           ; INCLUDING, BUT NOT LIMITED TO, THE IMPLIED WARRANTIES OF MERCHANTABILITY AND FITNESS F
      +                          OR
    58                           ; PURPOSE ARE DISCLAIMED.  IN NO EVENT SHALL MICROCHIP BE LIABLE FOR ANY DIRECT, INDIREC
      +                          T,
    59                           ; INCIDENTAL, SPECIAL, EXEMPLARY, OR CONSEQUENTIAL DAMAGES (INCLUDING BUT NOT LIMITED TO
    60                           ; PROCUREMENT OF SUBSTITUTE GOODS OR SERVICES; LOSS OF USE, DATA OR PROFITS; OR BUSINESS
    61                           ; INTERRUPTION) HOWSOEVER CAUSED AND ON ANY THEORY OF LIABILITY, WHETHER IN CONTRACT, ST
      +                          RICT
    62                           ; LIABILITY, OR TORT (INCLUDING NEGLIGENCE OR OTHERWISE) ARISING IN ANY WAY OUT OF THE U
      +                          SE OF
    63                           ; THIS SOFTWARE, EVEN IF ADVISED OF THE POSSIBILITY OF SUCH DAMAGE.
    64                           ; 
    65                           ; 
    66                           ; Code-generator required, PIC16F877A Definitions
    67                           ; 
    68                           ; SFR Addresses
    69  0000                     	;# 
    70  0001                     	;# 
    71  0002                     	;# 
    72  0003                     	;# 
    73  0004                     	;# 
    74  0005                     	;# 
    75  0006                     	;# 
    76  0007                     	;# 
    77  0008                     	;# 
    78  0009                     	;# 
    79  000A                     	;# 
    80  000B                     	;# 
    81  000C                     	;# 
    82  000D                     	;# 
    83  000E                     	;# 
    84  000E                     	;# 
    85  000F                     	;# 
    86  0010                     	;# 
    87  0011                     	;# 
    88  0012                     	;# 
    89  0013                     	;# 
    90  0014                     	;# 
    91  0015                     	;# 
    92  0015                     	;# 
    93  0016                     	;# 
    94  0017                     	;# 
    95  0018                     	;# 
    96  0019                     	;# 
    97  001A                     	;# 
    98  001B                     	;# 
    99  001B                     	;# 
   100  001C                     	;# 
   101  001D                     	;# 
   102  001E                     	;# 
   103  001F                     	;# 
   104  0081                     	;# 
   105  0085                     	;# 
   106  0086                     	;# 
   107  0087                     	;# 
   108  0088                     	;# 
   109  0089                     	;# 
   110  008C                     	;# 
   111  008D                     	;# 
   112  008E                     	;# 
   113  0091                     	;# 
   114  0092                     	;# 
   115  0093                     	;# 
   116  0094                     	;# 
   117  0098                     	;# 
   118  0099                     	;# 
   119  009C                     	;# 
   120  009D                     	;# 
   121  009E                     	;# 
   122  009F                     	;# 
   123  010C                     	;# 
   124  010D                     	;# 
   125  010E                     	;# 
   126  010F                     	;# 
   127  018C                     	;# 
   128  018D                     	;# 
   129  0000                     	;# 
   130  0001                     	;# 
   131  0002                     	;# 
   132  0003                     	;# 
   133  0004                     	;# 
   134  0005                     	;# 
   135  0006                     	;# 
   136  0007                     	;# 
   137  0008                     	;# 
   138  0009                     	;# 
   139  000A                     	;# 
   140  000B                     	;# 
   141  000C                     	;# 
   142  000D                     	;# 
   143  000E                     	;# 
   144  000E                     	;# 
   145  000F                     	;# 
   146  0010                     	;# 
   147  0011                     	;# 
   148  0012                     	;# 
   149  0013                     	;# 
   150  0014                     	;# 
   151  0015                     	;# 
   152  0015                     	;# 
   153  0016                     	;# 
   154  0017                     	;# 
   155  0018                     	;# 
   156  0019                     	;# 
   157  001A                     	;# 
   158  001B                     	;# 
   159  001B                     	;# 
   160  001C                     	;# 
   161  001D                     	;# 
   162  001E                     	;# 
   163  001F                     	;# 
   164  0081                     	;# 
   165  0085                     	;# 
   166  0086                     	;# 
   167  0087                     	;# 
   168  0088                     	;# 
   169  0089                     	;# 
   170  008C                     	;# 
   171  008D                     	;# 
   172  008E                     	;# 
   173  0091                     	;# 
   174  0092                     	;# 
   175  0093                     	;# 
   176  0094                     	;# 
   177  0098                     	;# 
   178  0099                     	;# 
   179  009C                     	;# 
   180  009D                     	;# 
   181  009E                     	;# 
   182  009F                     	;# 
   183  010C                     	;# 
   184  010D                     	;# 
   185  010E                     	;# 
   186  010F                     	;# 
   187  018C                     	;# 
   188  018D                     	;# 
   189  0000                     	;# 
   190  0001                     	;# 
   191  0002                     	;# 
   192  0003                     	;# 
   193  0004                     	;# 
   194  0005                     	;# 
   195  0006                     	;# 
   196  0007                     	;# 
   197  0008                     	;# 
   198  0009                     	;# 
   199  000A                     	;# 
   200  000B                     	;# 
   201  000C                     	;# 
   202  000D                     	;# 
   203  000E                     	;# 
   204  000E                     	;# 
   205  000F                     	;# 
   206  0010                     	;# 
   207  0011                     	;# 
   208  0012                     	;# 
   209  0013                     	;# 
   210  0014                     	;# 
   211  0015                     	;# 
   212  0015                     	;# 
   213  0016                     	;# 
   214  0017                     	;# 
   215  0018                     	;# 
   216  0019                     	;# 
   217  001A                     	;# 
   218  001B                     	;# 
   219  001B                     	;# 
   220  001C                     	;# 
   221  001D                     	;# 
   222  001E                     	;# 
   223  001F                     	;# 
   224  0081                     	;# 
   225  0085                     	;# 
   226  0086                     	;# 
   227  0087                     	;# 
   228  0088                     	;# 
   229  0089                     	;# 
   230  008C                     	;# 
   231  008D                     	;# 
   232  008E                     	;# 
   233  0091                     	;# 
   234  0092                     	;# 
   235  0093                     	;# 
   236  0094                     	;# 
   237  0098                     	;# 
   238  0099                     	;# 
   239  009C                     	;# 
   240  009D                     	;# 
   241  009E                     	;# 
   242  009F                     	;# 
   243  010C                     	;# 
   244  010D                     	;# 
   245  010E                     	;# 
   246  010F                     	;# 
   247  018C                     	;# 
   248  018D                     	;# 
   249  0000                     	;# 
   250  0001                     	;# 
   251  0002                     	;# 
   252  0003                     	;# 
   253  0004                     	;# 
   254  0005                     	;# 
   255  0006                     	;# 
   256  0007                     	;# 
   257  0008                     	;# 
   258  0009                     	;# 
   259  000A                     	;# 
   260  000B                     	;# 
   261  000C                     	;# 
   262  000D                     	;# 
   263  000E                     	;# 
   264  000E                     	;# 
   265  000F                     	;# 
   266  0010                     	;# 
   267  0011                     	;# 
   268  0012                     	;# 
   269  0013                     	;# 
   270  0014                     	;# 
   271  0015                     	;# 
   272  0015                     	;# 
   273  0016                     	;# 
   274  0017                     	;# 
   275  0018                     	;# 
   276  0019                     	;# 
   277  001A                     	;# 
   278  001B                     	;# 
   279  001B                     	;# 
   280  001C                     	;# 
   281  001D                     	;# 
   282  001E                     	;# 
   283  001F                     	;# 
   284  0081                     	;# 
   285  0085                     	;# 
   286  0086                     	;# 
   287  0087                     	;# 
   288  0088                     	;# 
   289  0089                     	;# 
   290  008C                     	;# 
   291  008D                     	;# 
   292  008E                     	;# 
   293  0091                     	;# 
   294  0092                     	;# 
   295  0093                     	;# 
   296  0094                     	;# 
   297  0098                     	;# 
   298  0099                     	;# 
   299  009C                     	;# 
   300  009D                     	;# 
   301  009E                     	;# 
   302  009F                     	;# 
   303  010C                     	;# 
   304  010D                     	;# 
   305  010E                     	;# 
   306  010F                     	;# 
   307  018C                     	;# 
   308  018D                     	;# 
   309  0000                     	;# 
   310  0001                     	;# 
   311  0002                     	;# 
   312  0003                     	;# 
   313  0004                     	;# 
   314  0005                     	;# 
   315  0006                     	;# 
   316  0007                     	;# 
   317  0008                     	;# 
   318  0009                     	;# 
   319  000A                     	;# 
   320  000B                     	;# 
   321  000C                     	;# 
   322  000D                     	;# 
   323  000E                     	;# 
   324  000E                     	;# 
   325  000F                     	;# 
   326  0010                     	;# 
   327  0011                     	;# 
   328  0012                     	;# 
   329  0013                     	;# 
   330  0014                     	;# 
   331  0015                     	;# 
   332  0015                     	;# 
   333  0016                     	;# 
   334  0017                     	;# 
   335  0018                     	;# 
   336  0019                     	;# 
   337  001A                     	;# 
   338  001B                     	;# 
   339  001B                     	;# 
   340  001C                     	;# 
   341  001D                     	;# 
   342  001E                     	;# 
   343  001F                     	;# 
   344  0081                     	;# 
   345  0085                     	;# 
   346  0086                     	;# 
   347  0087                     	;# 
   348  0088                     	;# 
   349  0089                     	;# 
   350  008C                     	;# 
   351  008D                     	;# 
   352  008E                     	;# 
   353  0091                     	;# 
   354  0092                     	;# 
   355  0093                     	;# 
   356  0094                     	;# 
   357  0098                     	;# 
   358  0099                     	;# 
   359  009C                     	;# 
   360  009D                     	;# 
   361  009E                     	;# 
   362  009F                     	;# 
   363  010C                     	;# 
   364  010D                     	;# 
   365  010E                     	;# 
   366  010F                     	;# 
   367  018C                     	;# 
   368  018D                     	;# 
   369                           
   370                           	psect	idataBANK1
   371  0CE2                     __pidataBANK1:
   372                           
   373                           ;initializer for ___cgram
   374  0CE2  340C               	retlw	12
   375  0CE3  3412               	retlw	18
   376  0CE4  3412               	retlw	18
   377  0CE5  340C               	retlw	12
   378  0CE6  3400               	retlw	0
   379  0CE7  3400               	retlw	0
   380  0CE8  3400               	retlw	0
   381  0CE9  3400               	retlw	0
   382  0CEA  3400               	retlw	0
   383  0CEB  3404               	retlw	4
   384  0CEC  340E               	retlw	14
   385  0CED  341F               	retlw	31
   386  0CEE  340E               	retlw	14
   387  0CEF  3404               	retlw	4
   388  0CF0  3400               	retlw	0
   389  0CF1  3400               	retlw	0
   390  0CF2  3404               	retlw	4
   391  0CF3  3404               	retlw	4
   392  0CF4  3404               	retlw	4
   393  0CF5  3404               	retlw	4
   394  0CF6  341F               	retlw	31
   395  0CF7  340E               	retlw	14
   396  0CF8  3404               	retlw	4
   397  0CF9  3400               	retlw	0
   398  0CFA  340A               	retlw	10
   399  0CFB  3415               	retlw	21
   400  0CFC  3411               	retlw	17
   401  0CFD  340A               	retlw	10
   402  0CFE  3404               	retlw	4
   403  0CFF  3400               	retlw	0
   404  0D00  3400               	retlw	0
   405  0D01  3400               	retlw	0
   406  0D02  340A               	retlw	10
   407  0D03  341F               	retlw	31
   408  0D04  341F               	retlw	31
   409  0D05  340E               	retlw	14
   410  0D06  3404               	retlw	4
   411  0D07  3400               	retlw	0
   412  0D08  3400               	retlw	0
   413  0D09  3400               	retlw	0
   414  0D0A  3400               	retlw	0
   415  0D0B  3400               	retlw	0
   416  0D0C  3400               	retlw	0
   417  0D0D  3400               	retlw	0
   418  0D0E  3400               	retlw	0
   419  0D0F  3400               	retlw	0
   420  0D10  3400               	retlw	0
   421  0D11  3400               	retlw	0
   422  0D12  3400               	retlw	0
   423  0D13  3400               	retlw	0
   424  0D14  3400               	retlw	0
   425  0D15  3400               	retlw	0
   426  0D16  3400               	retlw	0
   427  0D17  3400               	retlw	0
   428  0D18  3400               	retlw	0
   429  0D19  3400               	retlw	0
   430  0D1A  3400               	retlw	0
   431  0D1B  3400               	retlw	0
   432  0D1C  3400               	retlw	0
   433  0D1D  3400               	retlw	0
   434  0D1E  3400               	retlw	0
   435  0D1F  3400               	retlw	0
   436  0D20  3400               	retlw	0
   437  0D21  3400               	retlw	0
   438  001E                     _ADRESH	set	30
   439  001F                     _ADCON0bits	set	31
   440  0008                     _PORTD	set	8
   441  0032                     _RB2	set	50
   442  0044                     _RD4	set	68
   443  0031                     _RB1	set	49
   444  009E                     _ADRESL	set	158
   445  009F                     _ADCON1bits	set	159
   446  0086                     _TRISBbits	set	134
   447  0088                     _TRISDbits	set	136
   448  0088                     _TRISD	set	136
   449                           
   450                           	psect	strings
   451  0800                     __pstrings:
   452  0800                     stringtab:
   453  0800                     __stringtab:
   454  0800                     stringcode:	
   455                           ;	String table - string pointers are 1 byte each
   456                           
   457  0800                     stringdir:
   458  0800  3008               	movlw	high stringdir
   459  0801  008A               	movwf	10
   460  0802  0804               	movf	4,w
   461  0803  0A84               	incf	4,f
   462  0804  0782               	addwf	2,f
   463  0805                     __stringbase:
   464  0805  3400               	retlw	0
   465  0806                     __end_of__stringtab:
   466  0806                     STR_1:
   467  0806  3454               	retlw	84	;'T'
   468  0807  3468               	retlw	104	;'h'
   469  0808  3465               	retlw	101	;'e'
   470  0809  3472               	retlw	114	;'r'
   471  080A  346D               	retlw	109	;'m'
   472  080B  346F               	retlw	111	;'o'
   473  080C  346D               	retlw	109	;'m'
   474  080D  3465               	retlw	101	;'e'
   475  080E  3474               	retlw	116	;'t'
   476  080F  3465               	retlw	101	;'e'
   477  0810  3472               	retlw	114	;'r'
   478  0811  3400               	retlw	0
   479  0812                     STR_2:
   480  0812  3425               	retlw	37	;'%'
   481  0813  3430               	retlw	48	;'0'
   482  0814  3443               	retlw	67	;'C'
   483  0815  3400               	retlw	0
   484                           
   485                           	psect	cinit
   486  07E9                     start_initialization:	
   487                           ; #config settings
   488                           
   489  07E9                     __initialization:
   490                           
   491                           ; Initialize objects allocated to BANK1
   492  07E9  1383               	bcf	3,7	;select IRP bank0
   493  07EA  30E0               	movlw	low (__pdataBANK1+64)
   494  07EB  00FD               	movwf	btemp+-1
   495  07EC  300C               	movlw	high __pidataBANK1
   496  07ED  00FE               	movwf	btemp
   497  07EE  30E2               	movlw	low __pidataBANK1
   498  07EF  00FF               	movwf	btemp+1
   499  07F0  30A0               	movlw	low __pdataBANK1
   500  07F1  0084               	movwf	4
   501  07F2  120A  158A  2477  120A  118A  	fcall	init_ram0
   502                           
   503                           ; Clear objects allocated to BANK0
   504  07F7  01E6               	clrf	__pbssBANK0& (0+127)
   505  07F8  01E7               	clrf	(__pbssBANK0+1)& (0+127)
   506  07F9  01E8               	clrf	(__pbssBANK0+2)& (0+127)
   507  07FA  01E9               	clrf	(__pbssBANK0+3)& (0+127)
   508  07FB  01EA               	clrf	(__pbssBANK0+4)& (0+127)
   509  07FC                     end_of_initialization:	
   510                           ;End of C runtime variable initialization code
   511                           
   512  07FC                     __end_of__initialization:
   513  07FC  0183               	clrf	3
   514  07FD  120A  158A  2EC7   	ljmp	_main	;jump to C main() function
   515                           
   516                           	psect	bssBANK0
   517  0066                     __pbssBANK0:
   518  0066                     LCDWriteInt@F912:
   519  0066                     	ds	5
   520                           
   521                           	psect	dataBANK1
   522  00A0                     __pdataBANK1:
   523  00A0                     ___cgram:
   524  00A0                     	ds	64
   525                           
   526                           	psect	inittext
   527  0C73                     init_fetch0:	
   528                           ;	Called with low address in FSR and high address in W
   529                           
   530  0C73  087E               	movf	btemp,w
   531  0C74  008A               	movwf	10
   532  0C75  087F               	movf	btemp+1,w
   533  0C76  0082               	movwf	2
   534  0C77                     init_ram0:	
   535                           ;Called with:
   536                           ;	high address of idata address in btemp 
   537                           ;	low address of idata address in btemp+1 
   538                           ;	low address of data in FSR
   539                           ;	high address + 1 of data in btemp-1
   540                           
   541  0C77  120A  158A  2473  120A  158A  	fcall	init_fetch0
   542  0C7C  0080               	movwf	0
   543  0C7D  0A84               	incf	4,f
   544  0C7E  0804               	movf	4,w
   545  0C7F  067D               	xorwf	btemp+-1,w
   546  0C80  1903               	btfsc	3,2
   547  0C81  3400               	retlw	0
   548  0C82  0AFF               	incf	btemp+1,f
   549  0C83  1903               	btfsc	3,2
   550  0C84  0AFE               	incf	btemp,f
   551  0C85  2C77               	goto	init_ram0
   552                           
   553                           	psect	cstackCOMMON
   554  0070                     __pcstackCOMMON:
   555  0070                     ?_LCDBusyLoop:
   556  0070                     ??_LCDBusyLoop:	
   557                           ; 1 bytes @ 0x0
   558                           
   559  0070                     ?_LCDInit:	
   560                           ; 1 bytes @ 0x0
   561                           
   562  0070                     ?_LCDWriteString:	
   563                           ; 1 bytes @ 0x0
   564                           
   565  0070                     ?_ADCInit:	
   566                           ; 1 bytes @ 0x0
   567                           
   568  0070                     ??_ADCInit:	
   569                           ; 1 bytes @ 0x0
   570                           
   571  0070                     ?_main:	
   572                           ; 1 bytes @ 0x0
   573                           
   574  0070                     ?__Umul8_16:	
   575                           ; 1 bytes @ 0x0
   576                           
   577  0070                     ?_ReadADC:	
   578                           ; 2 bytes @ 0x0
   579                           
   580  0070                     ?___awdiv:	
   581                           ; 2 bytes @ 0x0
   582                           
   583  0070                     ?___awmod:	
   584                           ; 2 bytes @ 0x0
   585                           
   586  0070                     ?___lwdiv:	
   587                           ; 2 bytes @ 0x0
   588                           
   589  0070                     ?___fltol:	
   590                           ; 2 bytes @ 0x0
   591                           
   592  0070                     ?___xxtofl:	
   593                           ; 4 bytes @ 0x0
   594                           
   595  0070                     __Umul8_16@multiplicand:	
   596                           ; 4 bytes @ 0x0
   597                           
   598  0070                     ___awdiv@divisor:	
   599                           ; 1 bytes @ 0x0
   600                           
   601  0070                     ___awmod@divisor:	
   602                           ; 2 bytes @ 0x0
   603                           
   604  0070                     ___lwdiv@divisor:	
   605                           ; 2 bytes @ 0x0
   606                           
   607  0070                     ___fltol@f1:	
   608                           ; 2 bytes @ 0x0
   609                           
   610  0070                     ___xxtofl@val:	
   611                           ; 4 bytes @ 0x0
   612                           
   613                           
   614                           ; 4 bytes @ 0x0
   615  0070                     	ds	2
   616  0072                     ??__Umul8_16:
   617  0072                     ??_ReadADC:	
   618                           ; 1 bytes @ 0x2
   619                           
   620  0072                     LCDBusyLoop@busy:	
   621                           ; 1 bytes @ 0x2
   622                           
   623  0072                     ___awdiv@dividend:	
   624                           ; 1 bytes @ 0x2
   625                           
   626  0072                     ___awmod@dividend:	
   627                           ; 2 bytes @ 0x2
   628                           
   629  0072                     ___lwdiv@dividend:	
   630                           ; 2 bytes @ 0x2
   631                           
   632                           
   633                           ; 2 bytes @ 0x2
   634  0072                     	ds	1
   635  0073                     LCDBusyLoop@temp:
   636  0073                     ReadADC@ch:	
   637                           ; 1 bytes @ 0x3
   638                           
   639                           
   640                           ; 1 bytes @ 0x3
   641  0073                     	ds	1
   642  0074                     ??___awdiv:
   643  0074                     ??___awmod:	
   644                           ; 1 bytes @ 0x4
   645                           
   646  0074                     ??___fltol:	
   647                           ; 1 bytes @ 0x4
   648                           
   649  0074                     ??___lwdiv:	
   650                           ; 1 bytes @ 0x4
   651                           
   652  0074                     ??___xxtofl:	
   653                           ; 1 bytes @ 0x4
   654                           
   655  0074                     LCDBusyLoop@status:	
   656                           ; 1 bytes @ 0x4
   657                           
   658  0074                     __Umul8_16@product:	
   659                           ; 1 bytes @ 0x4
   660                           
   661                           
   662                           ; 2 bytes @ 0x4
   663  0074                     	ds	1
   664  0075                     ?_LCDByte:
   665  0075                     LCDByte@isdata:	
   666                           ; 1 bytes @ 0x5
   667                           
   668  0075                     ___awdiv@counter:	
   669                           ; 1 bytes @ 0x5
   670                           
   671  0075                     ___awmod@counter:	
   672                           ; 1 bytes @ 0x5
   673                           
   674  0075                     ___lwdiv@quotient:	
   675                           ; 1 bytes @ 0x5
   676                           
   677                           
   678                           ; 2 bytes @ 0x5
   679  0075                     	ds	1
   680  0076                     ??_LCDByte:
   681  0076                     ___awdiv@sign:	
   682                           ; 1 bytes @ 0x6
   683                           
   684  0076                     ___awmod@sign:	
   685                           ; 1 bytes @ 0x6
   686                           
   687  0076                     __Umul8_16@word_mpld:	
   688                           ; 1 bytes @ 0x6
   689                           
   690                           
   691                           ; 2 bytes @ 0x6
   692  0076                     	ds	1
   693  0077                     ___lwdiv@counter:
   694  0077                     ___awdiv@quotient:	
   695                           ; 1 bytes @ 0x7
   696                           
   697                           
   698                           ; 2 bytes @ 0x7
   699  0077                     	ds	1
   700  0078                     LCDByte@hn:
   701  0078                     __Umul8_16@multiplier:	
   702                           ; 1 bytes @ 0x8
   703                           
   704  0078                     ___xxtofl@sign:	
   705                           ; 1 bytes @ 0x8
   706                           
   707                           
   708                           ; 1 bytes @ 0x8
   709  0078                     	ds	1
   710  0079                     LCDByte@ln:
   711  0079                     ___fltol@sign1:	
   712                           ; 1 bytes @ 0x9
   713                           
   714  0079                     ___xxtofl@exp:	
   715                           ; 1 bytes @ 0x9
   716                           
   717                           
   718                           ; 1 bytes @ 0x9
   719  0079                     	ds	1
   720  007A                     LCDByte@c:
   721  007A                     ___fltol@exp1:	
   722                           ; 1 bytes @ 0xA
   723                           
   724  007A                     ___xxtofl@arg:	
   725                           ; 1 bytes @ 0xA
   726                           
   727                           
   728                           ; 4 bytes @ 0xA
   729  007A                     	ds	1
   730  007B                     LCDByte@temp:
   731                           
   732                           ; 1 bytes @ 0xB
   733  007B                     	ds	1
   734  007C                     ??_LCDInit:
   735  007C                     ??_LCDWriteString:	
   736                           ; 1 bytes @ 0xC
   737                           
   738  007C                     ?_LCDGotoXY:	
   739                           ; 1 bytes @ 0xC
   740                           
   741  007C                     LCDGotoXY@y:	
   742                           ; 1 bytes @ 0xC
   743                           
   744                           
   745                           ; 1 bytes @ 0xC
   746  007C                     	ds	1
   747  007D                     LCDGotoXY@x:
   748                           
   749                           ; 1 bytes @ 0xD
   750  007D                     	ds	1
   751                           
   752                           	psect	cstackBANK0
   753  0020                     __pcstackBANK0:
   754  0020                     ?_LCDWriteInt:
   755  0020                     ??_LCDGotoXY:	
   756                           ; 1 bytes @ 0x0
   757                           
   758  0020                     ?___fldiv:	
   759                           ; 1 bytes @ 0x0
   760                           
   761  0020                     LCDInit@style:	
   762                           ; 4 bytes @ 0x0
   763                           
   764  0020                     LCDWriteString@cc:	
   765                           ; 1 bytes @ 0x0
   766                           
   767  0020                     LCDWriteInt@val:	
   768                           ; 1 bytes @ 0x0
   769                           
   770  0020                     ___fldiv@a:	
   771                           ; 2 bytes @ 0x0
   772                           
   773                           
   774                           ; 4 bytes @ 0x0
   775  0020                     	ds	1
   776  0021                     LCDInit@__i:
   777  0021                     LCDWriteString@msg:	
   778                           ; 1 bytes @ 0x1
   779                           
   780                           
   781                           ; 1 bytes @ 0x1
   782  0021                     	ds	1
   783  0022                     LCDWriteInt@field_length:
   784                           
   785                           ; 1 bytes @ 0x2
   786  0022                     	ds	1
   787  0023                     ??_LCDWriteInt:
   788                           
   789                           ; 1 bytes @ 0x3
   790  0023                     	ds	1
   791  0024                     ___fldiv@b:
   792                           
   793                           ; 4 bytes @ 0x4
   794  0024                     	ds	2
   795  0026                     LCDWriteInt@str:
   796                           
   797                           ; 5 bytes @ 0x6
   798  0026                     	ds	2
   799  0028                     ??___fldiv:
   800                           
   801                           ; 1 bytes @ 0x8
   802  0028                     	ds	3
   803  002B                     LCDWriteInt@j:
   804                           
   805                           ; 2 bytes @ 0xB
   806  002B                     	ds	2
   807  002D                     LCDWriteInt@i:
   808  002D                     ___fldiv@rem:	
   809                           ; 2 bytes @ 0xD
   810                           
   811                           
   812                           ; 4 bytes @ 0xD
   813  002D                     	ds	4
   814  0031                     ___fldiv@sign:
   815                           
   816                           ; 1 bytes @ 0x11
   817  0031                     	ds	1
   818  0032                     ___fldiv@new_exp:
   819                           
   820                           ; 2 bytes @ 0x12
   821  0032                     	ds	2
   822  0034                     ___fldiv@grs:
   823                           
   824                           ; 4 bytes @ 0x14
   825  0034                     	ds	4
   826  0038                     ___fldiv@bexp:
   827                           
   828                           ; 1 bytes @ 0x18
   829  0038                     	ds	1
   830  0039                     ___fldiv@aexp:
   831                           
   832                           ; 1 bytes @ 0x19
   833  0039                     	ds	1
   834  003A                     ?___flmul:
   835  003A                     ___flmul@b:	
   836                           ; 4 bytes @ 0x1A
   837                           
   838                           
   839                           ; 4 bytes @ 0x1A
   840  003A                     	ds	4
   841  003E                     ___flmul@a:
   842                           
   843                           ; 4 bytes @ 0x1E
   844  003E                     	ds	4
   845  0042                     ??___flmul:
   846                           
   847                           ; 1 bytes @ 0x22
   848  0042                     	ds	5
   849  0047                     ___flmul@sign:
   850                           
   851                           ; 1 bytes @ 0x27
   852  0047                     	ds	1
   853  0048                     ___flmul@grs:
   854                           
   855                           ; 4 bytes @ 0x28
   856  0048                     	ds	4
   857  004C                     ___flmul@aexp:
   858                           
   859                           ; 1 bytes @ 0x2C
   860  004C                     	ds	1
   861  004D                     ___flmul@bexp:
   862                           
   863                           ; 1 bytes @ 0x2D
   864  004D                     	ds	1
   865  004E                     ___flmul@prod:
   866                           
   867                           ; 4 bytes @ 0x2E
   868  004E                     	ds	4
   869  0052                     ___flmul@temp:
   870                           
   871                           ; 2 bytes @ 0x32
   872  0052                     	ds	2
   873  0054                     ?_LM35ReadTemp:
   874                           
   875                           ; 4 bytes @ 0x34
   876  0054                     	ds	4
   877  0058                     ??_LM35ReadTemp:
   878                           
   879                           ; 1 bytes @ 0x38
   880  0058                     	ds	1
   881  0059                     LM35ReadTemp@t:
   882                           
   883                           ; 4 bytes @ 0x39
   884  0059                     	ds	4
   885  005D                     LM35ReadTemp@adc_value:
   886                           
   887                           ; 2 bytes @ 0x3D
   888  005D                     	ds	2
   889  005F                     ??_main:
   890                           
   891                           ; 1 bytes @ 0x3F
   892  005F                     	ds	3
   893  0062                     main@t:
   894                           
   895                           ; 4 bytes @ 0x42
   896  0062                     	ds	4
   897                           
   898                           	psect	maintext
   899  0EC7                     __pmaintext:	
   900 ;;
   901 ;;Main: autosize = 0, tempsize = 3, incstack = 0, save=0
   902 ;;
   903 ;; *************** function _main *****************
   904 ;; Defined at:
   905 ;;		line 48 in file "main.c"
   906 ;; Parameters:    Size  Location     Type
   907 ;;		None
   908 ;; Auto vars:     Size  Location     Type
   909 ;;  t               4   66[BANK0 ] float 
   910 ;; Return value:  Size  Location     Type
   911 ;;                  1    wreg      void 
   912 ;; Registers used:
   913 ;;		wreg, fsr0l, fsr0h, status,2, status,0, btemp+1, pclath, cstack
   914 ;; Tracked objects:
   915 ;;		On entry : B00/0
   916 ;;		On exit  : 0/0
   917 ;;		Unchanged: 0/0
   918 ;; Data sizes:     COMMON   BANK0   BANK1   BANK3   BANK2
   919 ;;      Params:         0       0       0       0       0
   920 ;;      Locals:         0       4       0       0       0
   921 ;;      Temps:          0       3       0       0       0
   922 ;;      Totals:         0       7       0       0       0
   923 ;;Total ram usage:        7 bytes
   924 ;; Hardware stack levels required when called: 3
   925 ;; This function calls:
   926 ;;		_ADCInit
   927 ;;		_LCDByte
   928 ;;		_LCDGotoXY
   929 ;;		_LCDInit
   930 ;;		_LCDWriteInt
   931 ;;		_LCDWriteString
   932 ;;		_LM35ReadTemp
   933 ;;		___fltol
   934 ;; This function is called by:
   935 ;;		Startup code after reset
   936 ;; This function uses a non-reentrant model
   937 ;;
   938                           
   939                           
   940                           ;psect for function _main
   941  0EC7                     _main:
   942  0EC7                     l2216:	
   943                           ;incstack = 0
   944                           ; Regs used in _main: [wreg-fsr0h+status,2+status,0+btemp+1+pclath+cstack]
   945                           
   946  0EC7  3000               	movlw	0
   947  0EC8  120A  158A  2663  120A  158A  	fcall	_LCDInit
   948  0ECD                     l2218:
   949  0ECD  120A  158A  2461  120A  158A  	fcall	_ADCInit
   950  0ED2                     l2220:
   951  0ED2  01F5               	clrf	LCDByte@isdata
   952  0ED3  3001               	movlw	1
   953  0ED4  120A  158A  2566  120A  158A  	fcall	_LCDByte
   954  0ED9  3001               	movlw	(low ((STR_1-__stringbase)| (0+32768)))& (0+255)
   955  0EDA  120A  158A  2793  120A  158A  	fcall	_LCDWriteString
   956  0EDF                     l2222:
   957  0EDF  120A  118A  20A8  120A  158A  	fcall	_LM35ReadTemp
   958  0EE4  1283               	bcf	3,5	;RP0=0, select bank0
   959  0EE5  1303               	bcf	3,6	;RP1=0, select bank0
   960  0EE6  0857               	movf	?_LM35ReadTemp+3,w
   961  0EE7  00E5               	movwf	main@t+3
   962  0EE8  0856               	movf	?_LM35ReadTemp+2,w
   963  0EE9  00E4               	movwf	main@t+2
   964  0EEA  0855               	movf	?_LM35ReadTemp+1,w
   965  0EEB  00E3               	movwf	main@t+1
   966  0EEC  0854               	movf	?_LM35ReadTemp,w
   967  0EED  00E2               	movwf	main@t
   968  0EEE                     l2224:
   969  0EEE  01FC               	clrf	LCDGotoXY@y
   970  0EEF  0AFC               	incf	LCDGotoXY@y,f
   971  0EF0  3000               	movlw	0
   972  0EF1  120A  158A  24AD  120A  158A  	fcall	_LCDGotoXY
   973  0EF6                     l2226:
   974  0EF6  1283               	bcf	3,5	;RP0=0, select bank0
   975  0EF7  1303               	bcf	3,6	;RP1=0, select bank0
   976  0EF8  0865               	movf	main@t+3,w
   977  0EF9  00F3               	movwf	___fltol@f1+3
   978  0EFA  0864               	movf	main@t+2,w
   979  0EFB  00F2               	movwf	___fltol@f1+2
   980  0EFC  0863               	movf	main@t+1,w
   981  0EFD  00F1               	movwf	___fltol@f1+1
   982  0EFE  0862               	movf	main@t,w
   983  0EFF  00F0               	movwf	___fltol@f1
   984  0F00  120A  118A  202E  120A  158A  	fcall	___fltol
   985  0F05  0871               	movf	?___fltol+1,w
   986  0F06  1283               	bcf	3,5	;RP0=0, select bank0
   987  0F07  1303               	bcf	3,6	;RP1=0, select bank0
   988  0F08  00A1               	movwf	LCDWriteInt@val+1
   989  0F09  0870               	movf	?___fltol,w
   990  0F0A  00A0               	movwf	LCDWriteInt@val
   991  0F0B  3003               	movlw	3
   992  0F0C  00DF               	movwf	??_main
   993  0F0D  085F               	movf	??_main,w
   994  0F0E  00A2               	movwf	LCDWriteInt@field_length
   995  0F0F  120A  118A  2147  120A  158A  	fcall	_LCDWriteInt
   996  0F14                     l2228:
   997  0F14  300D               	movlw	(low ((STR_2-__stringbase)| (0+32768)))& (0+255)
   998  0F15  120A  158A  2793  120A  158A  	fcall	_LCDWriteString
   999  0F1A                     l2230:
  1000  0F1A  3006               	movlw	6
  1001  0F1B  1283               	bcf	3,5	;RP0=0, select bank0
  1002  0F1C  1303               	bcf	3,6	;RP1=0, select bank0
  1003  0F1D  00E1               	movwf	??_main+2
  1004  0F1E  3013               	movlw	19
  1005  0F1F  00E0               	movwf	??_main+1
  1006  0F20  30AD               	movlw	173
  1007  0F21  00DF               	movwf	??_main
  1008  0F22                     u2757:
  1009  0F22  0BDF               	decfsz	??_main,f
  1010  0F23  2F22               	goto	u2757
  1011  0F24  0BE0               	decfsz	??_main+1,f
  1012  0F25  2F22               	goto	u2757
  1013  0F26  0BE1               	decfsz	??_main+2,f
  1014  0F27  2F22               	goto	u2757
  1015  0F28  2EDF               	goto	l2222
  1016  0F29  120A  118A  2800   	ljmp	start
  1017  0F2C                     __end_of_main:
  1018                           
  1019                           	psect	text1
  1020  002E                     __ptext1:	
  1021 ;; *************** function ___fltol *****************
  1022 ;; Defined at:
  1023 ;;		line 43 in file "C:\Program Files\Microchip\xc8\v2.32\pic\sources\c90\common\fltol.c"
  1024 ;; Parameters:    Size  Location     Type
  1025 ;;  f1              4    0[COMMON] void 
  1026 ;; Auto vars:     Size  Location     Type
  1027 ;;  exp1            1   10[COMMON] unsigned char 
  1028 ;;  sign1           1    9[COMMON] unsigned char 
  1029 ;; Return value:  Size  Location     Type
  1030 ;;                  4    0[COMMON] long 
  1031 ;; Registers used:
  1032 ;;		wreg, status,2, status,0
  1033 ;; Tracked objects:
  1034 ;;		On entry : 0/0
  1035 ;;		On exit  : 0/0
  1036 ;;		Unchanged: 0/0
  1037 ;; Data sizes:     COMMON   BANK0   BANK1   BANK3   BANK2
  1038 ;;      Params:         4       0       0       0       0
  1039 ;;      Locals:         2       0       0       0       0
  1040 ;;      Temps:          5       0       0       0       0
  1041 ;;      Totals:        11       0       0       0       0
  1042 ;;Total ram usage:       11 bytes
  1043 ;; Hardware stack levels used: 1
  1044 ;; This function calls:
  1045 ;;		Nothing
  1046 ;; This function is called by:
  1047 ;;		_main
  1048 ;; This function uses a non-reentrant model
  1049 ;;
  1050                           
  1051                           
  1052                           ;psect for function ___fltol
  1053  002E                     ___fltol:
  1054  002E                     l2180:	
  1055                           ;incstack = 0
  1056                           ; Regs used in ___fltol: [wreg+status,2+status,0]
  1057                           
  1058  002E  1003               	clrc
  1059  002F  0D72               	rlf	___fltol@f1+2,w
  1060  0030  0D73               	rlf	___fltol@f1+3,w
  1061  0031  00F4               	movwf	??___fltol
  1062  0032  0874               	movf	??___fltol,w
  1063  0033  00FA               	movwf	___fltol@exp1
  1064  0034  087A               	movf	___fltol@exp1,w
  1065  0035  1D03               	btfss	3,2
  1066  0036  2838               	goto	u2651
  1067  0037  2839               	goto	u2650
  1068  0038                     u2651:
  1069  0038  2842               	goto	l2186
  1070  0039                     u2650:
  1071  0039                     l2182:
  1072  0039  3000               	movlw	0
  1073  003A  00F3               	movwf	?___fltol+3
  1074  003B  3000               	movlw	0
  1075  003C  00F2               	movwf	?___fltol+2
  1076  003D  3000               	movlw	0
  1077  003E  00F1               	movwf	?___fltol+1
  1078  003F  3000               	movlw	0
  1079  0040  00F0               	movwf	?___fltol
  1080  0041  28A7               	goto	l394
  1081  0042                     l2186:
  1082  0042  0870               	movf	___fltol@f1,w
  1083  0043  00F4               	movwf	??___fltol
  1084  0044  0871               	movf	___fltol@f1+1,w
  1085  0045  00F5               	movwf	??___fltol+1
  1086  0046  0872               	movf	___fltol@f1+2,w
  1087  0047  00F6               	movwf	??___fltol+2
  1088  0048  0873               	movf	___fltol@f1+3,w
  1089  0049  00F7               	movwf	??___fltol+3
  1090  004A  301F               	movlw	31
  1091  004B                     u2665:
  1092  004B  1003               	clrc
  1093  004C  0CF7               	rrf	??___fltol+3,f
  1094  004D  0CF6               	rrf	??___fltol+2,f
  1095  004E  0CF5               	rrf	??___fltol+1,f
  1096  004F  0CF4               	rrf	??___fltol,f
  1097  0050                     u2660:
  1098  0050  3EFF               	addlw	-1
  1099  0051  1D03               	skipz
  1100  0052  284B               	goto	u2665
  1101  0053  0874               	movf	??___fltol,w
  1102  0054  00F8               	movwf	??___fltol+4
  1103  0055  0878               	movf	??___fltol+4,w
  1104  0056  00F9               	movwf	___fltol@sign1
  1105  0057                     l2188:
  1106  0057  17F2               	bsf	___fltol@f1+2,7
  1107  0058                     l2190:
  1108  0058  30FF               	movlw	255
  1109  0059  05F0               	andwf	___fltol@f1,f
  1110  005A  30FF               	movlw	255
  1111  005B  05F1               	andwf	___fltol@f1+1,f
  1112  005C  30FF               	movlw	255
  1113  005D  05F2               	andwf	___fltol@f1+2,f
  1114  005E  3000               	movlw	0
  1115  005F  05F3               	andwf	___fltol@f1+3,f
  1116  0060                     l2192:
  1117  0060  3096               	movlw	150
  1118  0061  02FA               	subwf	___fltol@exp1,f
  1119  0062                     l2194:
  1120  0062  1FFA               	btfss	___fltol@exp1,7
  1121  0063  2865               	goto	u2671
  1122  0064  2866               	goto	u2670
  1123  0065                     u2671:
  1124  0065  2880               	goto	l2204
  1125  0066                     u2670:
  1126  0066                     l2196:
  1127  0066  087A               	movf	___fltol@exp1,w
  1128  0067  3A80               	xorlw	128
  1129  0068  3E97               	addlw	151
  1130  0069  1803               	skipnc
  1131  006A  286C               	goto	u2681
  1132  006B  286D               	goto	u2680
  1133  006C                     u2681:
  1134  006C  286E               	goto	l2202
  1135  006D                     u2680:
  1136  006D  2839               	goto	l2182
  1137  006E                     l2202:
  1138  006E  3001               	movlw	1
  1139  006F                     u2695:
  1140  006F  1003               	clrc
  1141  0070  0CF3               	rrf	___fltol@f1+3,f
  1142  0071  0CF2               	rrf	___fltol@f1+2,f
  1143  0072  0CF1               	rrf	___fltol@f1+1,f
  1144  0073  0CF0               	rrf	___fltol@f1,f
  1145  0074  3EFF               	addlw	-1
  1146  0075  1D03               	skipz
  1147  0076  286F               	goto	u2695
  1148  0077  3001               	movlw	1
  1149  0078  00F4               	movwf	??___fltol
  1150  0079  0874               	movf	??___fltol,w
  1151  007A  07FA               	addwf	___fltol@exp1,f
  1152  007B  1D03               	btfss	3,2
  1153  007C  287E               	goto	u2701
  1154  007D  287F               	goto	u2700
  1155  007E                     u2701:
  1156  007E  286E               	goto	l2202
  1157  007F                     u2700:
  1158  007F  2897               	goto	l2212
  1159  0080                     l2204:
  1160  0080  3020               	movlw	32
  1161  0081  027A               	subwf	___fltol@exp1,w
  1162  0082  1C03               	skipc
  1163  0083  2885               	goto	u2711
  1164  0084  2886               	goto	u2710
  1165  0085                     u2711:
  1166  0085  2892               	goto	l401
  1167  0086                     u2710:
  1168  0086  2839               	goto	l2182
  1169  0087                     l2210:
  1170  0087  3001               	movlw	1
  1171  0088  00F4               	movwf	??___fltol
  1172  0089                     u2725:
  1173  0089  1003               	clrc
  1174  008A  0DF0               	rlf	___fltol@f1,f
  1175  008B  0DF1               	rlf	___fltol@f1+1,f
  1176  008C  0DF2               	rlf	___fltol@f1+2,f
  1177  008D  0DF3               	rlf	___fltol@f1+3,f
  1178  008E  0BF4               	decfsz	??___fltol,f
  1179  008F  2889               	goto	u2725
  1180  0090  3001               	movlw	1
  1181  0091  02FA               	subwf	___fltol@exp1,f
  1182  0092                     l401:
  1183  0092  087A               	movf	___fltol@exp1,w
  1184  0093  1D03               	btfss	3,2
  1185  0094  2896               	goto	u2731
  1186  0095  2897               	goto	u2730
  1187  0096                     u2731:
  1188  0096  2887               	goto	l2210
  1189  0097                     u2730:
  1190  0097                     l2212:
  1191  0097  0879               	movf	___fltol@sign1,w
  1192  0098  1903               	btfsc	3,2
  1193  0099  289B               	goto	u2741
  1194  009A  289C               	goto	u2740
  1195  009B                     u2741:
  1196  009B  28A7               	goto	l404
  1197  009C                     u2740:
  1198  009C                     l2214:
  1199  009C  09F0               	comf	___fltol@f1,f
  1200  009D  09F1               	comf	___fltol@f1+1,f
  1201  009E  09F2               	comf	___fltol@f1+2,f
  1202  009F  09F3               	comf	___fltol@f1+3,f
  1203  00A0  0AF0               	incf	___fltol@f1,f
  1204  00A1  1903               	skipnz
  1205  00A2  0AF1               	incf	___fltol@f1+1,f
  1206  00A3  1903               	skipnz
  1207  00A4  0AF2               	incf	___fltol@f1+2,f
  1208  00A5  1903               	skipnz
  1209  00A6  0AF3               	incf	___fltol@f1+3,f
  1210  00A7                     l404:
  1211  00A7                     l394:
  1212  00A7  0008               	return
  1213  00A8                     __end_of___fltol:
  1214                           
  1215                           	psect	text2
  1216  00A8                     __ptext2:	
  1217 ;; *************** function _LM35ReadTemp *****************
  1218 ;; Defined at:
  1219 ;;		line 8 in file "lm35_pic16.c"
  1220 ;; Parameters:    Size  Location     Type
  1221 ;;		None
  1222 ;; Auto vars:     Size  Location     Type
  1223 ;;  t               4   57[BANK0 ] float 
  1224 ;;  adc_value       2   61[BANK0 ] unsigned int 
  1225 ;; Return value:  Size  Location     Type
  1226 ;;                  4   52[BANK0 ] float 
  1227 ;; Registers used:
  1228 ;;		wreg, status,2, status,0, btemp+1, pclath, cstack
  1229 ;; Tracked objects:
  1230 ;;		On entry : 0/0
  1231 ;;		On exit  : 0/0
  1232 ;;		Unchanged: 0/0
  1233 ;; Data sizes:     COMMON   BANK0   BANK1   BANK3   BANK2
  1234 ;;      Params:         0       4       0       0       0
  1235 ;;      Locals:         0       6       0       0       0
  1236 ;;      Temps:          0       1       0       0       0
  1237 ;;      Totals:         0      11       0       0       0
  1238 ;;Total ram usage:       11 bytes
  1239 ;; Hardware stack levels used: 1
  1240 ;; Hardware stack levels required when called: 2
  1241 ;; This function calls:
  1242 ;;		_ReadADC
  1243 ;;		___fldiv
  1244 ;;		___flmul
  1245 ;;		___lwdiv
  1246 ;;		___xxtofl
  1247 ;; This function is called by:
  1248 ;;		_main
  1249 ;; This function uses a non-reentrant model
  1250 ;;
  1251                           
  1252                           
  1253                           ;psect for function _LM35ReadTemp
  1254  00A8                     _LM35ReadTemp:
  1255  00A8                     l2164:	
  1256                           ;incstack = 0
  1257                           ; Regs used in _LM35ReadTemp: [wreg+status,2+status,0+btemp+1+pclath+cstack]
  1258                           
  1259                           
  1260                           ;lm35_pic16.c: 11:     float t;;lm35_pic16.c: 14:     uint16_t adc_value=ReadADC(0);
  1261  00A8  3000               	movlw	0
  1262  00A9  120A  118A  2005  120A  118A  	fcall	_ReadADC
  1263  00AE  0871               	movf	?_ReadADC+1,w
  1264  00AF  1283               	bcf	3,5	;RP0=0, select bank0
  1265  00B0  1303               	bcf	3,6	;RP1=0, select bank0
  1266  00B1  00DE               	movwf	LM35ReadTemp@adc_value+1
  1267  00B2  0870               	movf	?_ReadADC,w
  1268  00B3  00DD               	movwf	LM35ReadTemp@adc_value
  1269  00B4                     l2166:
  1270                           
  1271                           ;lm35_pic16.c: 15:     _delay((unsigned long)((100)*(20000000/4000000.0)));
  1272  00B4  30A5               	movlw	165
  1273  00B5  1283               	bcf	3,5	;RP0=0, select bank0
  1274  00B6  1303               	bcf	3,6	;RP1=0, select bank0
  1275  00B7  00D8               	movwf	??_LM35ReadTemp
  1276  00B8                     u2767:
  1277  00B8  0BD8               	decfsz	??_LM35ReadTemp,f
  1278  00B9  28B8               	goto	u2767
  1279  00BA  28BB               	nop2
  1280  00BB                     l2168:
  1281                           
  1282                           ;lm35_pic16.c: 17:     adc_value+=ReadADC(0);
  1283  00BB  3000               	movlw	0
  1284  00BC  120A  118A  2005  120A  118A  	fcall	_ReadADC
  1285  00C1  0870               	movf	?_ReadADC,w
  1286  00C2  1283               	bcf	3,5	;RP0=0, select bank0
  1287  00C3  1303               	bcf	3,6	;RP1=0, select bank0
  1288  00C4  07DD               	addwf	LM35ReadTemp@adc_value,f
  1289  00C5  1803               	skipnc
  1290  00C6  0ADE               	incf	LM35ReadTemp@adc_value+1,f
  1291  00C7  0871               	movf	?_ReadADC+1,w
  1292  00C8  07DE               	addwf	LM35ReadTemp@adc_value+1,f
  1293                           
  1294                           ;lm35_pic16.c: 18:     _delay((unsigned long)((100)*(20000000/4000000.0)));
  1295  00C9  30A5               	movlw	165
  1296  00CA  1283               	bcf	3,5	;RP0=0, select bank0
  1297  00CB  1303               	bcf	3,6	;RP1=0, select bank0
  1298  00CC  00D8               	movwf	??_LM35ReadTemp
  1299  00CD                     u2777:
  1300  00CD  0BD8               	decfsz	??_LM35ReadTemp,f
  1301  00CE  28CD               	goto	u2777
  1302  00CF  28D0               	nop2
  1303  00D0                     l2170:
  1304                           
  1305                           ;lm35_pic16.c: 20:      adc_value+=ReadADC(0);
  1306  00D0  3000               	movlw	0
  1307  00D1  120A  118A  2005  120A  118A  	fcall	_ReadADC
  1308  00D6  0870               	movf	?_ReadADC,w
  1309  00D7  1283               	bcf	3,5	;RP0=0, select bank0
  1310  00D8  1303               	bcf	3,6	;RP1=0, select bank0
  1311  00D9  07DD               	addwf	LM35ReadTemp@adc_value,f
  1312  00DA  1803               	skipnc
  1313  00DB  0ADE               	incf	LM35ReadTemp@adc_value+1,f
  1314  00DC  0871               	movf	?_ReadADC+1,w
  1315  00DD  07DE               	addwf	LM35ReadTemp@adc_value+1,f
  1316  00DE                     l2172:
  1317                           
  1318                           ;lm35_pic16.c: 21:     _delay((unsigned long)((100)*(20000000/4000000.0)));
  1319  00DE  30A5               	movlw	165
  1320  00DF  1283               	bcf	3,5	;RP0=0, select bank0
  1321  00E0  1303               	bcf	3,6	;RP1=0, select bank0
  1322  00E1  00D8               	movwf	??_LM35ReadTemp
  1323  00E2                     u2787:
  1324  00E2  0BD8               	decfsz	??_LM35ReadTemp,f
  1325  00E3  28E2               	goto	u2787
  1326  00E4  28E5               	nop2
  1327                           
  1328                           ;lm35_pic16.c: 23:     adc_value=adc_value/3;
  1329  00E5  3003               	movlw	3
  1330  00E6  00F0               	movwf	___lwdiv@divisor
  1331  00E7  3000               	movlw	0
  1332  00E8  00F1               	movwf	___lwdiv@divisor+1
  1333  00E9  1283               	bcf	3,5	;RP0=0, select bank0
  1334  00EA  1303               	bcf	3,6	;RP1=0, select bank0
  1335  00EB  085E               	movf	LM35ReadTemp@adc_value+1,w
  1336  00EC  00F3               	movwf	___lwdiv@dividend+1
  1337  00ED  085D               	movf	LM35ReadTemp@adc_value,w
  1338  00EE  00F2               	movwf	___lwdiv@dividend
  1339  00EF  120A  158A  2522  120A  118A  	fcall	___lwdiv
  1340  00F4  0871               	movf	?___lwdiv+1,w
  1341  00F5  1283               	bcf	3,5	;RP0=0, select bank0
  1342  00F6  1303               	bcf	3,6	;RP1=0, select bank0
  1343  00F7  00DE               	movwf	LM35ReadTemp@adc_value+1
  1344  00F8  0870               	movf	?___lwdiv,w
  1345  00F9  00DD               	movwf	LM35ReadTemp@adc_value
  1346  00FA                     l2174:
  1347                           
  1348                           ;lm35_pic16.c: 26:     t=((adc_value/1023.00)*500.00);
  1349  00FA  3043               	movlw	67
  1350  00FB  00BD               	movwf	___flmul@b+3
  1351  00FC  30FA               	movlw	250
  1352  00FD  00BC               	movwf	___flmul@b+2
  1353  00FE  3000               	movlw	0
  1354  00FF  00BB               	movwf	___flmul@b+1
  1355  0100  3000               	movlw	0
  1356  0101  00BA               	movwf	___flmul@b
  1357  0102  3044               	movlw	68
  1358  0103  00A3               	movwf	___fldiv@a+3
  1359  0104  307F               	movlw	127
  1360  0105  00A2               	movwf	___fldiv@a+2
  1361  0106  30C0               	movlw	192
  1362  0107  00A1               	movwf	___fldiv@a+1
  1363  0108  3000               	movlw	0
  1364  0109  00A0               	movwf	___fldiv@a
  1365  010A  085D               	movf	LM35ReadTemp@adc_value,w
  1366  010B  00F0               	movwf	___xxtofl@val
  1367  010C  085E               	movf	LM35ReadTemp@adc_value+1,w
  1368  010D  00F1               	movwf	___xxtofl@val+1
  1369  010E  01F2               	clrf	___xxtofl@val+2
  1370  010F  01F3               	clrf	___xxtofl@val+3
  1371  0110  3000               	movlw	0
  1372  0111  120A  118A  21F1  120A  118A  	fcall	___xxtofl
  1373  0116  0873               	movf	?___xxtofl+3,w
  1374  0117  1283               	bcf	3,5	;RP0=0, select bank0
  1375  0118  1303               	bcf	3,6	;RP1=0, select bank0
  1376  0119  00A7               	movwf	___fldiv@b+3
  1377  011A  0872               	movf	?___xxtofl+2,w
  1378  011B  00A6               	movwf	___fldiv@b+2
  1379  011C  0871               	movf	?___xxtofl+1,w
  1380  011D  00A5               	movwf	___fldiv@b+1
  1381  011E  0870               	movf	?___xxtofl,w
  1382  011F  00A4               	movwf	___fldiv@b
  1383  0120  120A  118A  22AB  120A  118A  	fcall	___fldiv
  1384  0125  1283               	bcf	3,5	;RP0=0, select bank0
  1385  0126  1303               	bcf	3,6	;RP1=0, select bank0
  1386  0127  0823               	movf	?___fldiv+3,w
  1387  0128  00C1               	movwf	___flmul@a+3
  1388  0129  0822               	movf	?___fldiv+2,w
  1389  012A  00C0               	movwf	___flmul@a+2
  1390  012B  0821               	movf	?___fldiv+1,w
  1391  012C  00BF               	movwf	___flmul@a+1
  1392  012D  0820               	movf	?___fldiv,w
  1393  012E  00BE               	movwf	___flmul@a
  1394  012F  120A  118A  2488  120A  118A  	fcall	___flmul
  1395  0134  1283               	bcf	3,5	;RP0=0, select bank0
  1396  0135  1303               	bcf	3,6	;RP1=0, select bank0
  1397  0136  083D               	movf	?___flmul+3,w
  1398  0137  00DC               	movwf	LM35ReadTemp@t+3
  1399  0138  083C               	movf	?___flmul+2,w
  1400  0139  00DB               	movwf	LM35ReadTemp@t+2
  1401  013A  083B               	movf	?___flmul+1,w
  1402  013B  00DA               	movwf	LM35ReadTemp@t+1
  1403  013C  083A               	movf	?___flmul,w
  1404  013D  00D9               	movwf	LM35ReadTemp@t
  1405  013E                     l2176:
  1406                           
  1407                           ;lm35_pic16.c: 28:     return t;
  1408  013E  085C               	movf	LM35ReadTemp@t+3,w
  1409  013F  00D7               	movwf	?_LM35ReadTemp+3
  1410  0140  085B               	movf	LM35ReadTemp@t+2,w
  1411  0141  00D6               	movwf	?_LM35ReadTemp+2
  1412  0142  085A               	movf	LM35ReadTemp@t+1,w
  1413  0143  00D5               	movwf	?_LM35ReadTemp+1
  1414  0144  0859               	movf	LM35ReadTemp@t,w
  1415  0145  00D4               	movwf	?_LM35ReadTemp
  1416  0146                     l98:
  1417  0146  0008               	return
  1418  0147                     __end_of_LM35ReadTemp:
  1419                           
  1420                           	psect	text3
  1421  01F1                     __ptext3:	
  1422 ;; *************** function ___xxtofl *****************
  1423 ;; Defined at:
  1424 ;;		line 10 in file "C:\Program Files\Microchip\xc8\v2.32\pic\sources\c90\common\xxtofl.c"
  1425 ;; Parameters:    Size  Location     Type
  1426 ;;  sign            1    wreg     unsigned char 
  1427 ;;  val             4    0[COMMON] long 
  1428 ;; Auto vars:     Size  Location     Type
  1429 ;;  sign            1    8[COMMON] unsigned char 
  1430 ;;  arg             4   10[COMMON] unsigned long 
  1431 ;;  exp             1    9[COMMON] unsigned char 
  1432 ;; Return value:  Size  Location     Type
  1433 ;;                  4    0[COMMON] unsigned char 
  1434 ;; Registers used:
  1435 ;;		wreg, status,2, status,0
  1436 ;; Tracked objects:
  1437 ;;		On entry : 0/0
  1438 ;;		On exit  : 0/0
  1439 ;;		Unchanged: 0/0
  1440 ;; Data sizes:     COMMON   BANK0   BANK1   BANK3   BANK2
  1441 ;;      Params:         4       0       0       0       0
  1442 ;;      Locals:         6       0       0       0       0
  1443 ;;      Temps:          4       0       0       0       0
  1444 ;;      Totals:        14       0       0       0       0
  1445 ;;Total ram usage:       14 bytes
  1446 ;; Hardware stack levels used: 1
  1447 ;; This function calls:
  1448 ;;		Nothing
  1449 ;; This function is called by:
  1450 ;;		_LM35ReadTemp
  1451 ;; This function uses a non-reentrant model
  1452 ;;
  1453                           
  1454                           
  1455                           ;psect for function ___xxtofl
  1456  01F1                     ___xxtofl:
  1457                           
  1458                           ;incstack = 0
  1459                           ; Regs used in ___xxtofl: [wreg+status,2+status,0]
  1460                           ;___xxtofl@sign stored from wreg
  1461  01F1  00F8               	movwf	___xxtofl@sign
  1462  01F2                     l1978:
  1463  01F2  0878               	movf	___xxtofl@sign,w
  1464  01F3  1903               	btfsc	3,2
  1465  01F4  29F6               	goto	u2391
  1466  01F5  29F7               	goto	u2390
  1467  01F6                     u2391:
  1468  01F6  2A0B               	goto	l1984
  1469  01F7                     u2390:
  1470  01F7                     l1980:
  1471  01F7  1FF3               	btfss	___xxtofl@val+3,7
  1472  01F8  29FA               	goto	u2401
  1473  01F9  29FB               	goto	u2400
  1474  01FA                     u2401:
  1475  01FA  2A0B               	goto	l1984
  1476  01FB                     u2400:
  1477  01FB                     l1982:
  1478  01FB  0970               	comf	___xxtofl@val,w
  1479  01FC  00FA               	movwf	___xxtofl@arg
  1480  01FD  0971               	comf	___xxtofl@val+1,w
  1481  01FE  00FB               	movwf	___xxtofl@arg+1
  1482  01FF  0972               	comf	___xxtofl@val+2,w
  1483  0200  00FC               	movwf	___xxtofl@arg+2
  1484  0201  0973               	comf	___xxtofl@val+3,w
  1485  0202  00FD               	movwf	___xxtofl@arg+3
  1486  0203  0AFA               	incf	___xxtofl@arg,f
  1487  0204  1903               	skipnz
  1488  0205  0AFB               	incf	___xxtofl@arg+1,f
  1489  0206  1903               	skipnz
  1490  0207  0AFC               	incf	___xxtofl@arg+2,f
  1491  0208  1903               	skipnz
  1492  0209  0AFD               	incf	___xxtofl@arg+3,f
  1493  020A  2A13               	goto	l641
  1494  020B                     l1984:
  1495  020B  0873               	movf	___xxtofl@val+3,w
  1496  020C  00FD               	movwf	___xxtofl@arg+3
  1497  020D  0872               	movf	___xxtofl@val+2,w
  1498  020E  00FC               	movwf	___xxtofl@arg+2
  1499  020F  0871               	movf	___xxtofl@val+1,w
  1500  0210  00FB               	movwf	___xxtofl@arg+1
  1501  0211  0870               	movf	___xxtofl@val,w
  1502  0212  00FA               	movwf	___xxtofl@arg
  1503  0213                     l641:
  1504  0213  0873               	movf	___xxtofl@val+3,w
  1505  0214  0472               	iorwf	___xxtofl@val+2,w
  1506  0215  0471               	iorwf	___xxtofl@val+1,w
  1507  0216  0470               	iorwf	___xxtofl@val,w
  1508  0217  1D03               	skipz
  1509  0218  2A1A               	goto	u2411
  1510  0219  2A1B               	goto	u2410
  1511  021A                     u2411:
  1512  021A  2A24               	goto	l1990
  1513  021B                     u2410:
  1514  021B                     l1986:
  1515  021B  3000               	movlw	0
  1516  021C  00F3               	movwf	?___xxtofl+3
  1517  021D  3000               	movlw	0
  1518  021E  00F2               	movwf	?___xxtofl+2
  1519  021F  3000               	movlw	0
  1520  0220  00F1               	movwf	?___xxtofl+1
  1521  0221  3000               	movlw	0
  1522  0222  00F0               	movwf	?___xxtofl
  1523  0223  2AAA               	goto	l643
  1524  0224                     l1990:
  1525  0224  3096               	movlw	150
  1526  0225  00F4               	movwf	??___xxtofl
  1527  0226  0874               	movf	??___xxtofl,w
  1528  0227  00F9               	movwf	___xxtofl@exp
  1529  0228  2A36               	goto	l1994
  1530  0229                     l1992:
  1531  0229  3001               	movlw	1
  1532  022A  00F4               	movwf	??___xxtofl
  1533  022B  0874               	movf	??___xxtofl,w
  1534  022C  07F9               	addwf	___xxtofl@exp,f
  1535  022D  3001               	movlw	1
  1536  022E                     u2425:
  1537  022E  1003               	clrc
  1538  022F  0CFD               	rrf	___xxtofl@arg+3,f
  1539  0230  0CFC               	rrf	___xxtofl@arg+2,f
  1540  0231  0CFB               	rrf	___xxtofl@arg+1,f
  1541  0232  0CFA               	rrf	___xxtofl@arg,f
  1542  0233  3EFF               	addlw	-1
  1543  0234  1D03               	skipz
  1544  0235  2A2E               	goto	u2425
  1545  0236                     l1994:
  1546  0236  30FE               	movlw	254
  1547  0237  057D               	andwf	___xxtofl@arg+3,w
  1548  0238  1D03               	btfss	3,2
  1549  0239  2A3B               	goto	u2431
  1550  023A  2A3C               	goto	u2430
  1551  023B                     u2431:
  1552  023B  2A29               	goto	l1992
  1553  023C                     u2430:
  1554  023C  2A58               	goto	l647
  1555  023D                     l1996:
  1556  023D  3001               	movlw	1
  1557  023E  00F4               	movwf	??___xxtofl
  1558  023F  0874               	movf	??___xxtofl,w
  1559  0240  07F9               	addwf	___xxtofl@exp,f
  1560  0241                     l1998:
  1561  0241  3001               	movlw	1
  1562  0242  07FA               	addwf	___xxtofl@arg,f
  1563  0243  3000               	movlw	0
  1564  0244  1803               	skipnc
  1565  0245  3001               	movlw	1
  1566  0246  07FB               	addwf	___xxtofl@arg+1,f
  1567  0247  3000               	movlw	0
  1568  0248  1803               	skipnc
  1569  0249  3001               	movlw	1
  1570  024A  07FC               	addwf	___xxtofl@arg+2,f
  1571  024B  3000               	movlw	0
  1572  024C  1803               	skipnc
  1573  024D  3001               	movlw	1
  1574  024E  07FD               	addwf	___xxtofl@arg+3,f
  1575  024F                     l2000:
  1576  024F  3001               	movlw	1
  1577  0250                     u2445:
  1578  0250  1003               	clrc
  1579  0251  0CFD               	rrf	___xxtofl@arg+3,f
  1580  0252  0CFC               	rrf	___xxtofl@arg+2,f
  1581  0253  0CFB               	rrf	___xxtofl@arg+1,f
  1582  0254  0CFA               	rrf	___xxtofl@arg,f
  1583  0255  3EFF               	addlw	-1
  1584  0256  1D03               	skipz
  1585  0257  2A50               	goto	u2445
  1586  0258                     l647:
  1587  0258  30FF               	movlw	255
  1588  0259  057D               	andwf	___xxtofl@arg+3,w
  1589  025A  1D03               	btfss	3,2
  1590  025B  2A5D               	goto	u2451
  1591  025C  2A5E               	goto	u2450
  1592  025D                     u2451:
  1593  025D  2A3D               	goto	l1996
  1594  025E                     u2450:
  1595  025E  2A6A               	goto	l2004
  1596  025F                     l2002:
  1597  025F  3001               	movlw	1
  1598  0260  02F9               	subwf	___xxtofl@exp,f
  1599  0261  3001               	movlw	1
  1600  0262  00F4               	movwf	??___xxtofl
  1601  0263                     u2465:
  1602  0263  1003               	clrc
  1603  0264  0DFA               	rlf	___xxtofl@arg,f
  1604  0265  0DFB               	rlf	___xxtofl@arg+1,f
  1605  0266  0DFC               	rlf	___xxtofl@arg+2,f
  1606  0267  0DFD               	rlf	___xxtofl@arg+3,f
  1607  0268  0BF4               	decfsz	??___xxtofl,f
  1608  0269  2A63               	goto	u2465
  1609  026A                     l2004:
  1610  026A  1BFC               	btfsc	___xxtofl@arg+2,7
  1611  026B  2A6D               	goto	u2471
  1612  026C  2A6E               	goto	u2470
  1613  026D                     u2471:
  1614  026D  2A74               	goto	l654
  1615  026E                     u2470:
  1616  026E                     l2006:
  1617  026E  3002               	movlw	2
  1618  026F  0279               	subwf	___xxtofl@exp,w
  1619  0270  1803               	skipnc
  1620  0271  2A73               	goto	u2481
  1621  0272  2A74               	goto	u2480
  1622  0273                     u2481:
  1623  0273  2A5F               	goto	l2002
  1624  0274                     u2480:
  1625  0274                     l654:
  1626  0274  1879               	btfsc	___xxtofl@exp,0
  1627  0275  2A77               	goto	u2491
  1628  0276  2A78               	goto	u2490
  1629  0277                     u2491:
  1630  0277  2A80               	goto	l655
  1631  0278                     u2490:
  1632  0278                     l2008:
  1633  0278  30FF               	movlw	255
  1634  0279  05FA               	andwf	___xxtofl@arg,f
  1635  027A  30FF               	movlw	255
  1636  027B  05FB               	andwf	___xxtofl@arg+1,f
  1637  027C  307F               	movlw	127
  1638  027D  05FC               	andwf	___xxtofl@arg+2,f
  1639  027E  30FF               	movlw	255
  1640  027F  05FD               	andwf	___xxtofl@arg+3,f
  1641  0280                     l655:
  1642  0280  1003               	clrc
  1643  0281  0CF9               	rrf	___xxtofl@exp,f
  1644  0282                     l2010:
  1645  0282  0879               	movf	___xxtofl@exp,w
  1646  0283  00F4               	movwf	??___xxtofl
  1647  0284  01F5               	clrf	??___xxtofl+1
  1648  0285  01F6               	clrf	??___xxtofl+2
  1649  0286  01F7               	clrf	??___xxtofl+3
  1650  0287  3018               	movlw	24
  1651  0288                     u2505:
  1652  0288  1003               	clrc
  1653  0289  0DF4               	rlf	??___xxtofl,f
  1654  028A  0DF5               	rlf	??___xxtofl+1,f
  1655  028B  0DF6               	rlf	??___xxtofl+2,f
  1656  028C  0DF7               	rlf	??___xxtofl+3,f
  1657  028D                     u2500:
  1658  028D  3EFF               	addlw	-1
  1659  028E  1D03               	skipz
  1660  028F  2A88               	goto	u2505
  1661  0290  0874               	movf	??___xxtofl,w
  1662  0291  04FA               	iorwf	___xxtofl@arg,f
  1663  0292  0875               	movf	??___xxtofl+1,w
  1664  0293  04FB               	iorwf	___xxtofl@arg+1,f
  1665  0294  0876               	movf	??___xxtofl+2,w
  1666  0295  04FC               	iorwf	___xxtofl@arg+2,f
  1667  0296  0877               	movf	??___xxtofl+3,w
  1668  0297  04FD               	iorwf	___xxtofl@arg+3,f
  1669  0298                     l2012:
  1670  0298  0878               	movf	___xxtofl@sign,w
  1671  0299  1903               	btfsc	3,2
  1672  029A  2A9C               	goto	u2511
  1673  029B  2A9D               	goto	u2510
  1674  029C                     u2511:
  1675  029C  2AA2               	goto	l2018
  1676  029D                     u2510:
  1677  029D                     l2014:
  1678  029D  1FF3               	btfss	___xxtofl@val+3,7
  1679  029E  2AA0               	goto	u2521
  1680  029F  2AA1               	goto	u2520
  1681  02A0                     u2521:
  1682  02A0  2AA2               	goto	l2018
  1683  02A1                     u2520:
  1684  02A1                     l2016:
  1685  02A1  17FD               	bsf	___xxtofl@arg+3,7
  1686  02A2                     l2018:
  1687  02A2  087D               	movf	___xxtofl@arg+3,w
  1688  02A3  00F3               	movwf	?___xxtofl+3
  1689  02A4  087C               	movf	___xxtofl@arg+2,w
  1690  02A5  00F2               	movwf	?___xxtofl+2
  1691  02A6  087B               	movf	___xxtofl@arg+1,w
  1692  02A7  00F1               	movwf	?___xxtofl+1
  1693  02A8  087A               	movf	___xxtofl@arg,w
  1694  02A9  00F0               	movwf	?___xxtofl
  1695  02AA                     l643:
  1696  02AA  0008               	return
  1697  02AB                     __end_of___xxtofl:
  1698                           
  1699                           	psect	text4
  1700  0D22                     __ptext4:	
  1701 ;; *************** function ___lwdiv *****************
  1702 ;; Defined at:
  1703 ;;		line 5 in file "C:\Program Files\Microchip\xc8\v2.32\pic\sources\c90\common\lwdiv.c"
  1704 ;; Parameters:    Size  Location     Type
  1705 ;;  divisor         2    0[COMMON] unsigned int 
  1706 ;;  dividend        2    2[COMMON] unsigned int 
  1707 ;; Auto vars:     Size  Location     Type
  1708 ;;  quotient        2    5[COMMON] unsigned int 
  1709 ;;  counter         1    7[COMMON] unsigned char 
  1710 ;; Return value:  Size  Location     Type
  1711 ;;                  2    0[COMMON] unsigned int 
  1712 ;; Registers used:
  1713 ;;		wreg, status,2, status,0
  1714 ;; Tracked objects:
  1715 ;;		On entry : 0/0
  1716 ;;		On exit  : 0/0
  1717 ;;		Unchanged: 0/0
  1718 ;; Data sizes:     COMMON   BANK0   BANK1   BANK3   BANK2
  1719 ;;      Params:         4       0       0       0       0
  1720 ;;      Locals:         3       0       0       0       0
  1721 ;;      Temps:          1       0       0       0       0
  1722 ;;      Totals:         8       0       0       0       0
  1723 ;;Total ram usage:        8 bytes
  1724 ;; Hardware stack levels used: 1
  1725 ;; This function calls:
  1726 ;;		Nothing
  1727 ;; This function is called by:
  1728 ;;		_LM35ReadTemp
  1729 ;; This function uses a non-reentrant model
  1730 ;;
  1731                           
  1732                           
  1733                           ;psect for function ___lwdiv
  1734  0D22                     ___lwdiv:
  1735  0D22                     l1670:	
  1736                           ;incstack = 0
  1737                           ; Regs used in ___lwdiv: [wreg+status,2+status,0]
  1738                           
  1739  0D22  01F5               	clrf	___lwdiv@quotient
  1740  0D23  01F6               	clrf	___lwdiv@quotient+1
  1741  0D24                     l1672:
  1742  0D24  0870               	movf	___lwdiv@divisor,w
  1743  0D25  0471               	iorwf	___lwdiv@divisor+1,w
  1744  0D26  1903               	btfsc	3,2
  1745  0D27  2D29               	goto	u1661
  1746  0D28  2D2A               	goto	u1660
  1747  0D29                     u1661:
  1748  0D29  2D61               	goto	l1692
  1749  0D2A                     u1660:
  1750  0D2A                     l1674:
  1751  0D2A  01F7               	clrf	___lwdiv@counter
  1752  0D2B  0AF7               	incf	___lwdiv@counter,f
  1753  0D2C  2D38               	goto	l1680
  1754  0D2D                     l1676:
  1755  0D2D  3001               	movlw	1
  1756  0D2E                     u1675:
  1757  0D2E  1003               	clrc
  1758  0D2F  0DF0               	rlf	___lwdiv@divisor,f
  1759  0D30  0DF1               	rlf	___lwdiv@divisor+1,f
  1760  0D31  3EFF               	addlw	-1
  1761  0D32  1D03               	skipz
  1762  0D33  2D2E               	goto	u1675
  1763  0D34                     l1678:
  1764  0D34  3001               	movlw	1
  1765  0D35  00F4               	movwf	??___lwdiv
  1766  0D36  0874               	movf	??___lwdiv,w
  1767  0D37  07F7               	addwf	___lwdiv@counter,f
  1768  0D38                     l1680:
  1769  0D38  1FF1               	btfss	___lwdiv@divisor+1,7
  1770  0D39  2D3B               	goto	u1681
  1771  0D3A  2D3C               	goto	u1680
  1772  0D3B                     u1681:
  1773  0D3B  2D2D               	goto	l1676
  1774  0D3C                     u1680:
  1775  0D3C                     l1682:
  1776  0D3C  3001               	movlw	1
  1777  0D3D                     u1695:
  1778  0D3D  1003               	clrc
  1779  0D3E  0DF5               	rlf	___lwdiv@quotient,f
  1780  0D3F  0DF6               	rlf	___lwdiv@quotient+1,f
  1781  0D40  3EFF               	addlw	-1
  1782  0D41  1D03               	skipz
  1783  0D42  2D3D               	goto	u1695
  1784  0D43  0871               	movf	___lwdiv@divisor+1,w
  1785  0D44  0273               	subwf	___lwdiv@dividend+1,w
  1786  0D45  1D03               	skipz
  1787  0D46  2D49               	goto	u1705
  1788  0D47  0870               	movf	___lwdiv@divisor,w
  1789  0D48  0272               	subwf	___lwdiv@dividend,w
  1790  0D49                     u1705:
  1791  0D49  1C03               	skipc
  1792  0D4A  2D4C               	goto	u1701
  1793  0D4B  2D4D               	goto	u1700
  1794  0D4C                     u1701:
  1795  0D4C  2D54               	goto	l1688
  1796  0D4D                     u1700:
  1797  0D4D                     l1684:
  1798  0D4D  0870               	movf	___lwdiv@divisor,w
  1799  0D4E  02F2               	subwf	___lwdiv@dividend,f
  1800  0D4F  0871               	movf	___lwdiv@divisor+1,w
  1801  0D50  1C03               	skipc
  1802  0D51  03F3               	decf	___lwdiv@dividend+1,f
  1803  0D52  02F3               	subwf	___lwdiv@dividend+1,f
  1804  0D53                     l1686:
  1805  0D53  1475               	bsf	___lwdiv@quotient,0
  1806  0D54                     l1688:
  1807  0D54  3001               	movlw	1
  1808  0D55                     u1715:
  1809  0D55  1003               	clrc
  1810  0D56  0CF1               	rrf	___lwdiv@divisor+1,f
  1811  0D57  0CF0               	rrf	___lwdiv@divisor,f
  1812  0D58  3EFF               	addlw	-1
  1813  0D59  1D03               	skipz
  1814  0D5A  2D55               	goto	u1715
  1815  0D5B                     l1690:
  1816  0D5B  3001               	movlw	1
  1817  0D5C  02F7               	subwf	___lwdiv@counter,f
  1818  0D5D  1D03               	btfss	3,2
  1819  0D5E  2D60               	goto	u1721
  1820  0D5F  2D61               	goto	u1720
  1821  0D60                     u1721:
  1822  0D60  2D3C               	goto	l1682
  1823  0D61                     u1720:
  1824  0D61                     l1692:
  1825  0D61  0876               	movf	___lwdiv@quotient+1,w
  1826  0D62  00F1               	movwf	?___lwdiv+1
  1827  0D63  0875               	movf	___lwdiv@quotient,w
  1828  0D64  00F0               	movwf	?___lwdiv
  1829  0D65                     l480:
  1830  0D65  0008               	return
  1831  0D66                     __end_of___lwdiv:
  1832                           
  1833                           	psect	text5
  1834  0488                     __ptext5:	
  1835 ;; *************** function ___flmul *****************
  1836 ;; Defined at:
  1837 ;;		line 8 in file "C:\Program Files\Microchip\xc8\v2.32\pic\sources\c90\common\sprcmul.c"
  1838 ;; Parameters:    Size  Location     Type
  1839 ;;  b               4   26[BANK0 ] unsigned int 
  1840 ;;  a               4   30[BANK0 ] unsigned int 
  1841 ;; Auto vars:     Size  Location     Type
  1842 ;;  prod            4   46[BANK0 ] struct .
  1843 ;;  grs             4   40[BANK0 ] unsigned long 
  1844 ;;  temp            2   50[BANK0 ] struct .
  1845 ;;  bexp            1   45[BANK0 ] unsigned char 
  1846 ;;  aexp            1   44[BANK0 ] unsigned char 
  1847 ;;  sign            1   39[BANK0 ] unsigned char 
  1848 ;; Return value:  Size  Location     Type
  1849 ;;                  4   26[BANK0 ] unsigned char 
  1850 ;; Registers used:
  1851 ;;		wreg, status,2, status,0, btemp+1, pclath, cstack
  1852 ;; Tracked objects:
  1853 ;;		On entry : 0/0
  1854 ;;		On exit  : 0/0
  1855 ;;		Unchanged: 0/0
  1856 ;; Data sizes:     COMMON   BANK0   BANK1   BANK3   BANK2
  1857 ;;      Params:         0       8       0       0       0
  1858 ;;      Locals:         0      13       0       0       0
  1859 ;;      Temps:          0       5       0       0       0
  1860 ;;      Totals:         0      26       0       0       0
  1861 ;;Total ram usage:       26 bytes
  1862 ;; Hardware stack levels used: 1
  1863 ;; Hardware stack levels required when called: 1
  1864 ;; This function calls:
  1865 ;;		__Umul8_16
  1866 ;; This function is called by:
  1867 ;;		_LM35ReadTemp
  1868 ;; This function uses a non-reentrant model
  1869 ;;
  1870                           
  1871                           
  1872                           ;psect for function ___flmul
  1873  0488                     ___flmul:
  1874  0488                     l1838:	
  1875                           ;incstack = 0
  1876                           ; Regs used in ___flmul: [wreg+status,2+status,0+btemp+1+pclath+cstack]
  1877                           
  1878  0488  1283               	bcf	3,5	;RP0=0, select bank0
  1879  0489  1303               	bcf	3,6	;RP1=0, select bank0
  1880  048A  083D               	movf	___flmul@b+3,w
  1881  048B  3980               	andlw	128
  1882  048C  00C2               	movwf	??___flmul
  1883  048D  0842               	movf	??___flmul,w
  1884  048E  00C7               	movwf	___flmul@sign
  1885  048F                     l1840:
  1886  048F  083D               	movf	___flmul@b+3,w
  1887  0490  00C2               	movwf	??___flmul
  1888  0491  0742               	addwf	??___flmul,w
  1889  0492  00C3               	movwf	??___flmul+1
  1890  0493  0843               	movf	??___flmul+1,w
  1891  0494  00CD               	movwf	___flmul@bexp
  1892  0495                     l1842:
  1893  0495  1FBC               	btfss	___flmul@b+2,7
  1894  0496  2C98               	goto	u2021
  1895  0497  2C99               	goto	u2020
  1896  0498                     u2021:
  1897  0498  2C9A               	goto	l1846
  1898  0499                     u2020:
  1899  0499                     l1844:
  1900  0499  144D               	bsf	___flmul@bexp,0
  1901  049A                     l1846:
  1902  049A  084D               	movf	___flmul@bexp,w
  1903  049B  1903               	btfsc	3,2
  1904  049C  2C9E               	goto	u2031
  1905  049D  2C9F               	goto	u2030
  1906  049E                     u2031:
  1907  049E  2CAE               	goto	l1854
  1908  049F                     u2030:
  1909  049F                     l1848:
  1910  049F  0A4D               	incf	___flmul@bexp,w
  1911  04A0  1D03               	btfss	3,2
  1912  04A1  2CA3               	goto	u2041
  1913  04A2  2CA4               	goto	u2040
  1914  04A3                     u2041:
  1915  04A3  2CAC               	goto	l1852
  1916  04A4                     u2040:
  1917  04A4                     l1850:
  1918  04A4  3000               	movlw	0
  1919  04A5  00BD               	movwf	___flmul@b+3
  1920  04A6  3000               	movlw	0
  1921  04A7  00BC               	movwf	___flmul@b+2
  1922  04A8  3000               	movlw	0
  1923  04A9  00BB               	movwf	___flmul@b+1
  1924  04AA  3000               	movlw	0
  1925  04AB  00BA               	movwf	___flmul@b
  1926  04AC                     l1852:
  1927  04AC  17BC               	bsf	___flmul@b+2,7
  1928  04AD  2CB6               	goto	l1856
  1929  04AE                     l1854:
  1930  04AE  3000               	movlw	0
  1931  04AF  00BD               	movwf	___flmul@b+3
  1932  04B0  3000               	movlw	0
  1933  04B1  00BC               	movwf	___flmul@b+2
  1934  04B2  3000               	movlw	0
  1935  04B3  00BB               	movwf	___flmul@b+1
  1936  04B4  3000               	movlw	0
  1937  04B5  00BA               	movwf	___flmul@b
  1938  04B6                     l1856:
  1939  04B6  0841               	movf	___flmul@a+3,w
  1940  04B7  3980               	andlw	128
  1941  04B8  00C2               	movwf	??___flmul
  1942  04B9  0842               	movf	??___flmul,w
  1943  04BA  06C7               	xorwf	___flmul@sign,f
  1944  04BB                     l1858:
  1945  04BB  0841               	movf	___flmul@a+3,w
  1946  04BC  00C2               	movwf	??___flmul
  1947  04BD  0742               	addwf	??___flmul,w
  1948  04BE  00C3               	movwf	??___flmul+1
  1949  04BF  0843               	movf	??___flmul+1,w
  1950  04C0  00CC               	movwf	___flmul@aexp
  1951  04C1                     l1860:
  1952  04C1  1FC0               	btfss	___flmul@a+2,7
  1953  04C2  2CC4               	goto	u2051
  1954  04C3  2CC5               	goto	u2050
  1955  04C4                     u2051:
  1956  04C4  2CC6               	goto	l1864
  1957  04C5                     u2050:
  1958  04C5                     l1862:
  1959  04C5  144C               	bsf	___flmul@aexp,0
  1960  04C6                     l1864:
  1961  04C6  084C               	movf	___flmul@aexp,w
  1962  04C7  1903               	btfsc	3,2
  1963  04C8  2CCA               	goto	u2061
  1964  04C9  2CCB               	goto	u2060
  1965  04CA                     u2061:
  1966  04CA  2CDA               	goto	l1872
  1967  04CB                     u2060:
  1968  04CB                     l1866:
  1969  04CB  0A4C               	incf	___flmul@aexp,w
  1970  04CC  1D03               	btfss	3,2
  1971  04CD  2CCF               	goto	u2071
  1972  04CE  2CD0               	goto	u2070
  1973  04CF                     u2071:
  1974  04CF  2CD8               	goto	l1870
  1975  04D0                     u2070:
  1976  04D0                     l1868:
  1977  04D0  3000               	movlw	0
  1978  04D1  00C1               	movwf	___flmul@a+3
  1979  04D2  3000               	movlw	0
  1980  04D3  00C0               	movwf	___flmul@a+2
  1981  04D4  3000               	movlw	0
  1982  04D5  00BF               	movwf	___flmul@a+1
  1983  04D6  3000               	movlw	0
  1984  04D7  00BE               	movwf	___flmul@a
  1985  04D8                     l1870:
  1986  04D8  17C0               	bsf	___flmul@a+2,7
  1987  04D9  2CE2               	goto	l1874
  1988  04DA                     l1872:
  1989  04DA  3000               	movlw	0
  1990  04DB  00C1               	movwf	___flmul@a+3
  1991  04DC  3000               	movlw	0
  1992  04DD  00C0               	movwf	___flmul@a+2
  1993  04DE  3000               	movlw	0
  1994  04DF  00BF               	movwf	___flmul@a+1
  1995  04E0  3000               	movlw	0
  1996  04E1  00BE               	movwf	___flmul@a
  1997  04E2                     l1874:
  1998  04E2  084C               	movf	___flmul@aexp,w
  1999  04E3  1903               	btfsc	3,2
  2000  04E4  2CE6               	goto	u2081
  2001  04E5  2CE7               	goto	u2080
  2002  04E6                     u2081:
  2003  04E6  2CEC               	goto	l1878
  2004  04E7                     u2080:
  2005  04E7                     l1876:
  2006  04E7  084D               	movf	___flmul@bexp,w
  2007  04E8  1D03               	btfss	3,2
  2008  04E9  2CEB               	goto	u2091
  2009  04EA  2CEC               	goto	u2090
  2010  04EB                     u2091:
  2011  04EB  2CF5               	goto	l1882
  2012  04EC                     u2090:
  2013  04EC                     l1878:
  2014  04EC  3000               	movlw	0
  2015  04ED  00BD               	movwf	?___flmul+3
  2016  04EE  3000               	movlw	0
  2017  04EF  00BC               	movwf	?___flmul+2
  2018  04F0  3000               	movlw	0
  2019  04F1  00BB               	movwf	?___flmul+1
  2020  04F2  3000               	movlw	0
  2021  04F3  00BA               	movwf	?___flmul
  2022  04F4  2FE8               	goto	l597
  2023  04F5                     l1882:
  2024  04F5  083A               	movf	___flmul@b,w
  2025  04F6  00C2               	movwf	??___flmul
  2026  04F7  0842               	movf	??___flmul,w
  2027  04F8  00F0               	movwf	__Umul8_16@multiplicand
  2028  04F9  0840               	movf	___flmul@a+2,w
  2029  04FA  120A  158A  2486  120A  118A  	fcall	__Umul8_16
  2030  04FF  0871               	movf	?__Umul8_16+1,w
  2031  0500  1283               	bcf	3,5	;RP0=0, select bank0
  2032  0501  1303               	bcf	3,6	;RP1=0, select bank0
  2033  0502  00D3               	movwf	___flmul@temp+1
  2034  0503  0870               	movf	?__Umul8_16,w
  2035  0504  00D2               	movwf	___flmul@temp
  2036  0505                     l1884:
  2037  0505  0852               	movf	___flmul@temp,w
  2038  0506  00C2               	movwf	??___flmul
  2039  0507  01C3               	clrf	??___flmul+1
  2040  0508  01C4               	clrf	??___flmul+2
  2041  0509  01C5               	clrf	??___flmul+3
  2042  050A  0845               	movf	??___flmul+3,w
  2043  050B  00CB               	movwf	___flmul@grs+3
  2044  050C  0844               	movf	??___flmul+2,w
  2045  050D  00CA               	movwf	___flmul@grs+2
  2046  050E  0843               	movf	??___flmul+1,w
  2047  050F  00C9               	movwf	___flmul@grs+1
  2048  0510  0842               	movf	??___flmul,w
  2049  0511  00C8               	movwf	___flmul@grs
  2050  0512                     l1886:
  2051  0512  0853               	movf	___flmul@temp+1,w
  2052  0513  00C2               	movwf	??___flmul
  2053  0514  01C3               	clrf	??___flmul+1
  2054  0515  01C4               	clrf	??___flmul+2
  2055  0516  01C5               	clrf	??___flmul+3
  2056  0517  0845               	movf	??___flmul+3,w
  2057  0518  00D1               	movwf	___flmul@prod+3
  2058  0519  0844               	movf	??___flmul+2,w
  2059  051A  00D0               	movwf	___flmul@prod+2
  2060  051B  0843               	movf	??___flmul+1,w
  2061  051C  00CF               	movwf	___flmul@prod+1
  2062  051D  0842               	movf	??___flmul,w
  2063  051E  00CE               	movwf	___flmul@prod
  2064  051F  083B               	movf	___flmul@b+1,w
  2065  0520  00C2               	movwf	??___flmul
  2066  0521  0842               	movf	??___flmul,w
  2067  0522  00F0               	movwf	__Umul8_16@multiplicand
  2068  0523  083F               	movf	___flmul@a+1,w
  2069  0524  120A  158A  2486  120A  118A  	fcall	__Umul8_16
  2070  0529  0871               	movf	?__Umul8_16+1,w
  2071  052A  1283               	bcf	3,5	;RP0=0, select bank0
  2072  052B  1303               	bcf	3,6	;RP1=0, select bank0
  2073  052C  00D3               	movwf	___flmul@temp+1
  2074  052D  0870               	movf	?__Umul8_16,w
  2075  052E  00D2               	movwf	___flmul@temp
  2076  052F                     l1888:
  2077  052F  0852               	movf	___flmul@temp,w
  2078  0530  00C2               	movwf	??___flmul
  2079  0531  01C3               	clrf	??___flmul+1
  2080  0532  01C4               	clrf	??___flmul+2
  2081  0533  01C5               	clrf	??___flmul+3
  2082  0534  0842               	movf	??___flmul,w
  2083  0535  07C8               	addwf	___flmul@grs,f
  2084  0536  0843               	movf	??___flmul+1,w
  2085  0537  1103               	clrz
  2086  0538  1803               	skipnc
  2087  0539  3E01               	addlw	1
  2088  053A  1903               	skipnz
  2089  053B  2D3D               	goto	u2101
  2090  053C  07C9               	addwf	___flmul@grs+1,f
  2091  053D                     u2101:
  2092  053D  0844               	movf	??___flmul+2,w
  2093  053E  1103               	clrz
  2094  053F  1803               	skipnc
  2095  0540  3E01               	addlw	1
  2096  0541  1903               	skipnz
  2097  0542  2D44               	goto	u2102
  2098  0543  07CA               	addwf	___flmul@grs+2,f
  2099  0544                     u2102:
  2100  0544  0845               	movf	??___flmul+3,w
  2101  0545  1103               	clrz
  2102  0546  1803               	skipnc
  2103  0547  3E01               	addlw	1
  2104  0548  1903               	skipnz
  2105  0549  2D4B               	goto	u2103
  2106  054A  07CB               	addwf	___flmul@grs+3,f
  2107  054B                     u2103:
  2108  054B                     l1890:
  2109  054B  0853               	movf	___flmul@temp+1,w
  2110  054C  00C2               	movwf	??___flmul
  2111  054D  01C3               	clrf	??___flmul+1
  2112  054E  01C4               	clrf	??___flmul+2
  2113  054F  01C5               	clrf	??___flmul+3
  2114  0550  0842               	movf	??___flmul,w
  2115  0551  07CE               	addwf	___flmul@prod,f
  2116  0552  0843               	movf	??___flmul+1,w
  2117  0553  1103               	clrz
  2118  0554  1803               	skipnc
  2119  0555  3E01               	addlw	1
  2120  0556  1903               	skipnz
  2121  0557  2D59               	goto	u2111
  2122  0558  07CF               	addwf	___flmul@prod+1,f
  2123  0559                     u2111:
  2124  0559  0844               	movf	??___flmul+2,w
  2125  055A  1103               	clrz
  2126  055B  1803               	skipnc
  2127  055C  3E01               	addlw	1
  2128  055D  1903               	skipnz
  2129  055E  2D60               	goto	u2112
  2130  055F  07D0               	addwf	___flmul@prod+2,f
  2131  0560                     u2112:
  2132  0560  0845               	movf	??___flmul+3,w
  2133  0561  1103               	clrz
  2134  0562  1803               	skipnc
  2135  0563  3E01               	addlw	1
  2136  0564  1903               	skipnz
  2137  0565  2D67               	goto	u2113
  2138  0566  07D1               	addwf	___flmul@prod+3,f
  2139  0567                     u2113:
  2140  0567  083C               	movf	___flmul@b+2,w
  2141  0568  00C2               	movwf	??___flmul
  2142  0569  0842               	movf	??___flmul,w
  2143  056A  00F0               	movwf	__Umul8_16@multiplicand
  2144  056B  083E               	movf	___flmul@a,w
  2145  056C  120A  158A  2486  120A  118A  	fcall	__Umul8_16
  2146  0571  0871               	movf	?__Umul8_16+1,w
  2147  0572  1283               	bcf	3,5	;RP0=0, select bank0
  2148  0573  1303               	bcf	3,6	;RP1=0, select bank0
  2149  0574  00D3               	movwf	___flmul@temp+1
  2150  0575  0870               	movf	?__Umul8_16,w
  2151  0576  00D2               	movwf	___flmul@temp
  2152  0577                     l1892:
  2153  0577  0852               	movf	___flmul@temp,w
  2154  0578  00C2               	movwf	??___flmul
  2155  0579  01C3               	clrf	??___flmul+1
  2156  057A  01C4               	clrf	??___flmul+2
  2157  057B  01C5               	clrf	??___flmul+3
  2158  057C  0842               	movf	??___flmul,w
  2159  057D  07C8               	addwf	___flmul@grs,f
  2160  057E  0843               	movf	??___flmul+1,w
  2161  057F  1103               	clrz
  2162  0580  1803               	skipnc
  2163  0581  3E01               	addlw	1
  2164  0582  1903               	skipnz
  2165  0583  2D85               	goto	u2121
  2166  0584  07C9               	addwf	___flmul@grs+1,f
  2167  0585                     u2121:
  2168  0585  0844               	movf	??___flmul+2,w
  2169  0586  1103               	clrz
  2170  0587  1803               	skipnc
  2171  0588  3E01               	addlw	1
  2172  0589  1903               	skipnz
  2173  058A  2D8C               	goto	u2122
  2174  058B  07CA               	addwf	___flmul@grs+2,f
  2175  058C                     u2122:
  2176  058C  0845               	movf	??___flmul+3,w
  2177  058D  1103               	clrz
  2178  058E  1803               	skipnc
  2179  058F  3E01               	addlw	1
  2180  0590  1903               	skipnz
  2181  0591  2D93               	goto	u2123
  2182  0592  07CB               	addwf	___flmul@grs+3,f
  2183  0593                     u2123:
  2184  0593                     l1894:
  2185  0593  0853               	movf	___flmul@temp+1,w
  2186  0594  00C2               	movwf	??___flmul
  2187  0595  01C3               	clrf	??___flmul+1
  2188  0596  01C4               	clrf	??___flmul+2
  2189  0597  01C5               	clrf	??___flmul+3
  2190  0598  0842               	movf	??___flmul,w
  2191  0599  07CE               	addwf	___flmul@prod,f
  2192  059A  0843               	movf	??___flmul+1,w
  2193  059B  1103               	clrz
  2194  059C  1803               	skipnc
  2195  059D  3E01               	addlw	1
  2196  059E  1903               	skipnz
  2197  059F  2DA1               	goto	u2131
  2198  05A0  07CF               	addwf	___flmul@prod+1,f
  2199  05A1                     u2131:
  2200  05A1  0844               	movf	??___flmul+2,w
  2201  05A2  1103               	clrz
  2202  05A3  1803               	skipnc
  2203  05A4  3E01               	addlw	1
  2204  05A5  1903               	skipnz
  2205  05A6  2DA8               	goto	u2132
  2206  05A7  07D0               	addwf	___flmul@prod+2,f
  2207  05A8                     u2132:
  2208  05A8  0845               	movf	??___flmul+3,w
  2209  05A9  1103               	clrz
  2210  05AA  1803               	skipnc
  2211  05AB  3E01               	addlw	1
  2212  05AC  1903               	skipnz
  2213  05AD  2DAF               	goto	u2133
  2214  05AE  07D1               	addwf	___flmul@prod+3,f
  2215  05AF                     u2133:
  2216  05AF                     l1896:
  2217  05AF  3008               	movlw	8
  2218  05B0  00C2               	movwf	??___flmul
  2219  05B1                     u2145:
  2220  05B1  1003               	clrc
  2221  05B2  0DC8               	rlf	___flmul@grs,f
  2222  05B3  0DC9               	rlf	___flmul@grs+1,f
  2223  05B4  0DCA               	rlf	___flmul@grs+2,f
  2224  05B5  0DCB               	rlf	___flmul@grs+3,f
  2225  05B6  0BC2               	decfsz	??___flmul,f
  2226  05B7  2DB1               	goto	u2145
  2227  05B8                     l1898:
  2228  05B8  083B               	movf	___flmul@b+1,w
  2229  05B9  00C2               	movwf	??___flmul
  2230  05BA  0842               	movf	??___flmul,w
  2231  05BB  00F0               	movwf	__Umul8_16@multiplicand
  2232  05BC  083E               	movf	___flmul@a,w
  2233  05BD  120A  158A  2486  120A  118A  	fcall	__Umul8_16
  2234  05C2  0871               	movf	?__Umul8_16+1,w
  2235  05C3  1283               	bcf	3,5	;RP0=0, select bank0
  2236  05C4  1303               	bcf	3,6	;RP1=0, select bank0
  2237  05C5  00D3               	movwf	___flmul@temp+1
  2238  05C6  0870               	movf	?__Umul8_16,w
  2239  05C7  00D2               	movwf	___flmul@temp
  2240  05C8                     l1900:
  2241  05C8  0852               	movf	___flmul@temp,w
  2242  05C9  00C2               	movwf	??___flmul
  2243  05CA  0853               	movf	___flmul@temp+1,w
  2244  05CB  00C3               	movwf	??___flmul+1
  2245  05CC  01C4               	clrf	??___flmul+2
  2246  05CD  01C5               	clrf	??___flmul+3
  2247  05CE  0842               	movf	??___flmul,w
  2248  05CF  07C8               	addwf	___flmul@grs,f
  2249  05D0  0843               	movf	??___flmul+1,w
  2250  05D1  1103               	clrz
  2251  05D2  1803               	skipnc
  2252  05D3  3E01               	addlw	1
  2253  05D4  1903               	skipnz
  2254  05D5  2DD7               	goto	u2151
  2255  05D6  07C9               	addwf	___flmul@grs+1,f
  2256  05D7                     u2151:
  2257  05D7  0844               	movf	??___flmul+2,w
  2258  05D8  1103               	clrz
  2259  05D9  1803               	skipnc
  2260  05DA  3E01               	addlw	1
  2261  05DB  1903               	skipnz
  2262  05DC  2DDE               	goto	u2152
  2263  05DD  07CA               	addwf	___flmul@grs+2,f
  2264  05DE                     u2152:
  2265  05DE  0845               	movf	??___flmul+3,w
  2266  05DF  1103               	clrz
  2267  05E0  1803               	skipnc
  2268  05E1  3E01               	addlw	1
  2269  05E2  1903               	skipnz
  2270  05E3  2DE5               	goto	u2153
  2271  05E4  07CB               	addwf	___flmul@grs+3,f
  2272  05E5                     u2153:
  2273  05E5                     l1902:
  2274  05E5  083A               	movf	___flmul@b,w
  2275  05E6  00C2               	movwf	??___flmul
  2276  05E7  0842               	movf	??___flmul,w
  2277  05E8  00F0               	movwf	__Umul8_16@multiplicand
  2278  05E9  083F               	movf	___flmul@a+1,w
  2279  05EA  120A  158A  2486  120A  118A  	fcall	__Umul8_16
  2280  05EF  0871               	movf	?__Umul8_16+1,w
  2281  05F0  1283               	bcf	3,5	;RP0=0, select bank0
  2282  05F1  1303               	bcf	3,6	;RP1=0, select bank0
  2283  05F2  00D3               	movwf	___flmul@temp+1
  2284  05F3  0870               	movf	?__Umul8_16,w
  2285  05F4  00D2               	movwf	___flmul@temp
  2286  05F5                     l1904:
  2287  05F5  0852               	movf	___flmul@temp,w
  2288  05F6  00C2               	movwf	??___flmul
  2289  05F7  0853               	movf	___flmul@temp+1,w
  2290  05F8  00C3               	movwf	??___flmul+1
  2291  05F9  01C4               	clrf	??___flmul+2
  2292  05FA  01C5               	clrf	??___flmul+3
  2293  05FB  0842               	movf	??___flmul,w
  2294  05FC  07C8               	addwf	___flmul@grs,f
  2295  05FD  0843               	movf	??___flmul+1,w
  2296  05FE  1103               	clrz
  2297  05FF  1803               	skipnc
  2298  0600  3E01               	addlw	1
  2299  0601  1903               	skipnz
  2300  0602  2E04               	goto	u2161
  2301  0603  07C9               	addwf	___flmul@grs+1,f
  2302  0604                     u2161:
  2303  0604  0844               	movf	??___flmul+2,w
  2304  0605  1103               	clrz
  2305  0606  1803               	skipnc
  2306  0607  3E01               	addlw	1
  2307  0608  1903               	skipnz
  2308  0609  2E0B               	goto	u2162
  2309  060A  07CA               	addwf	___flmul@grs+2,f
  2310  060B                     u2162:
  2311  060B  0845               	movf	??___flmul+3,w
  2312  060C  1103               	clrz
  2313  060D  1803               	skipnc
  2314  060E  3E01               	addlw	1
  2315  060F  1903               	skipnz
  2316  0610  2E12               	goto	u2163
  2317  0611  07CB               	addwf	___flmul@grs+3,f
  2318  0612                     u2163:
  2319  0612                     l1906:
  2320  0612  3008               	movlw	8
  2321  0613  00C2               	movwf	??___flmul
  2322  0614                     u2175:
  2323  0614  1003               	clrc
  2324  0615  0DC8               	rlf	___flmul@grs,f
  2325  0616  0DC9               	rlf	___flmul@grs+1,f
  2326  0617  0DCA               	rlf	___flmul@grs+2,f
  2327  0618  0DCB               	rlf	___flmul@grs+3,f
  2328  0619  0BC2               	decfsz	??___flmul,f
  2329  061A  2E14               	goto	u2175
  2330  061B  083A               	movf	___flmul@b,w
  2331  061C  00C2               	movwf	??___flmul
  2332  061D  0842               	movf	??___flmul,w
  2333  061E  00F0               	movwf	__Umul8_16@multiplicand
  2334  061F  083E               	movf	___flmul@a,w
  2335  0620  120A  158A  2486  120A  118A  	fcall	__Umul8_16
  2336  0625  0871               	movf	?__Umul8_16+1,w
  2337  0626  1283               	bcf	3,5	;RP0=0, select bank0
  2338  0627  1303               	bcf	3,6	;RP1=0, select bank0
  2339  0628  00D3               	movwf	___flmul@temp+1
  2340  0629  0870               	movf	?__Umul8_16,w
  2341  062A  00D2               	movwf	___flmul@temp
  2342  062B                     l1908:
  2343  062B  0852               	movf	___flmul@temp,w
  2344  062C  00C2               	movwf	??___flmul
  2345  062D  0853               	movf	___flmul@temp+1,w
  2346  062E  00C3               	movwf	??___flmul+1
  2347  062F  01C4               	clrf	??___flmul+2
  2348  0630  01C5               	clrf	??___flmul+3
  2349  0631  0842               	movf	??___flmul,w
  2350  0632  07C8               	addwf	___flmul@grs,f
  2351  0633  0843               	movf	??___flmul+1,w
  2352  0634  1103               	clrz
  2353  0635  1803               	skipnc
  2354  0636  3E01               	addlw	1
  2355  0637  1903               	skipnz
  2356  0638  2E3A               	goto	u2181
  2357  0639  07C9               	addwf	___flmul@grs+1,f
  2358  063A                     u2181:
  2359  063A  0844               	movf	??___flmul+2,w
  2360  063B  1103               	clrz
  2361  063C  1803               	skipnc
  2362  063D  3E01               	addlw	1
  2363  063E  1903               	skipnz
  2364  063F  2E41               	goto	u2182
  2365  0640  07CA               	addwf	___flmul@grs+2,f
  2366  0641                     u2182:
  2367  0641  0845               	movf	??___flmul+3,w
  2368  0642  1103               	clrz
  2369  0643  1803               	skipnc
  2370  0644  3E01               	addlw	1
  2371  0645  1903               	skipnz
  2372  0646  2E48               	goto	u2183
  2373  0647  07CB               	addwf	___flmul@grs+3,f
  2374  0648                     u2183:
  2375  0648                     l1910:
  2376  0648  083B               	movf	___flmul@b+1,w
  2377  0649  00C2               	movwf	??___flmul
  2378  064A  0842               	movf	??___flmul,w
  2379  064B  00F0               	movwf	__Umul8_16@multiplicand
  2380  064C  0840               	movf	___flmul@a+2,w
  2381  064D  120A  158A  2486  120A  118A  	fcall	__Umul8_16
  2382  0652  0871               	movf	?__Umul8_16+1,w
  2383  0653  1283               	bcf	3,5	;RP0=0, select bank0
  2384  0654  1303               	bcf	3,6	;RP1=0, select bank0
  2385  0655  00D3               	movwf	___flmul@temp+1
  2386  0656  0870               	movf	?__Umul8_16,w
  2387  0657  00D2               	movwf	___flmul@temp
  2388  0658  0852               	movf	___flmul@temp,w
  2389  0659  00C2               	movwf	??___flmul
  2390  065A  0853               	movf	___flmul@temp+1,w
  2391  065B  00C3               	movwf	??___flmul+1
  2392  065C  01C4               	clrf	??___flmul+2
  2393  065D  01C5               	clrf	??___flmul+3
  2394  065E  0842               	movf	??___flmul,w
  2395  065F  07CE               	addwf	___flmul@prod,f
  2396  0660  0843               	movf	??___flmul+1,w
  2397  0661  1103               	clrz
  2398  0662  1803               	skipnc
  2399  0663  3E01               	addlw	1
  2400  0664  1903               	skipnz
  2401  0665  2E67               	goto	u2191
  2402  0666  07CF               	addwf	___flmul@prod+1,f
  2403  0667                     u2191:
  2404  0667  0844               	movf	??___flmul+2,w
  2405  0668  1103               	clrz
  2406  0669  1803               	skipnc
  2407  066A  3E01               	addlw	1
  2408  066B  1903               	skipnz
  2409  066C  2E6E               	goto	u2192
  2410  066D  07D0               	addwf	___flmul@prod+2,f
  2411  066E                     u2192:
  2412  066E  0845               	movf	??___flmul+3,w
  2413  066F  1103               	clrz
  2414  0670  1803               	skipnc
  2415  0671  3E01               	addlw	1
  2416  0672  1903               	skipnz
  2417  0673  2E75               	goto	u2193
  2418  0674  07D1               	addwf	___flmul@prod+3,f
  2419  0675                     u2193:
  2420  0675                     l1912:
  2421  0675  083C               	movf	___flmul@b+2,w
  2422  0676  00C2               	movwf	??___flmul
  2423  0677  0842               	movf	??___flmul,w
  2424  0678  00F0               	movwf	__Umul8_16@multiplicand
  2425  0679  083F               	movf	___flmul@a+1,w
  2426  067A  120A  158A  2486  120A  118A  	fcall	__Umul8_16
  2427  067F  0871               	movf	?__Umul8_16+1,w
  2428  0680  1283               	bcf	3,5	;RP0=0, select bank0
  2429  0681  1303               	bcf	3,6	;RP1=0, select bank0
  2430  0682  00D3               	movwf	___flmul@temp+1
  2431  0683  0870               	movf	?__Umul8_16,w
  2432  0684  00D2               	movwf	___flmul@temp
  2433  0685                     l1914:
  2434  0685  0852               	movf	___flmul@temp,w
  2435  0686  00C2               	movwf	??___flmul
  2436  0687  0853               	movf	___flmul@temp+1,w
  2437  0688  00C3               	movwf	??___flmul+1
  2438  0689  01C4               	clrf	??___flmul+2
  2439  068A  01C5               	clrf	??___flmul+3
  2440  068B  0842               	movf	??___flmul,w
  2441  068C  07CE               	addwf	___flmul@prod,f
  2442  068D  0843               	movf	??___flmul+1,w
  2443  068E  1103               	clrz
  2444  068F  1803               	skipnc
  2445  0690  3E01               	addlw	1
  2446  0691  1903               	skipnz
  2447  0692  2E94               	goto	u2201
  2448  0693  07CF               	addwf	___flmul@prod+1,f
  2449  0694                     u2201:
  2450  0694  0844               	movf	??___flmul+2,w
  2451  0695  1103               	clrz
  2452  0696  1803               	skipnc
  2453  0697  3E01               	addlw	1
  2454  0698  1903               	skipnz
  2455  0699  2E9B               	goto	u2202
  2456  069A  07D0               	addwf	___flmul@prod+2,f
  2457  069B                     u2202:
  2458  069B  0845               	movf	??___flmul+3,w
  2459  069C  1103               	clrz
  2460  069D  1803               	skipnc
  2461  069E  3E01               	addlw	1
  2462  069F  1903               	skipnz
  2463  06A0  2EA2               	goto	u2203
  2464  06A1  07D1               	addwf	___flmul@prod+3,f
  2465  06A2                     u2203:
  2466  06A2  083C               	movf	___flmul@b+2,w
  2467  06A3  00C2               	movwf	??___flmul
  2468  06A4  0842               	movf	??___flmul,w
  2469  06A5  00F0               	movwf	__Umul8_16@multiplicand
  2470  06A6  0840               	movf	___flmul@a+2,w
  2471  06A7  120A  158A  2486  120A  118A  	fcall	__Umul8_16
  2472  06AC  0871               	movf	?__Umul8_16+1,w
  2473  06AD  1283               	bcf	3,5	;RP0=0, select bank0
  2474  06AE  1303               	bcf	3,6	;RP1=0, select bank0
  2475  06AF  00D3               	movwf	___flmul@temp+1
  2476  06B0  0870               	movf	?__Umul8_16,w
  2477  06B1  00D2               	movwf	___flmul@temp
  2478  06B2                     l1916:
  2479  06B2  0852               	movf	___flmul@temp,w
  2480  06B3  00C2               	movwf	??___flmul
  2481  06B4  0853               	movf	___flmul@temp+1,w
  2482  06B5  00C3               	movwf	??___flmul+1
  2483  06B6  01C4               	clrf	??___flmul+2
  2484  06B7  01C5               	clrf	??___flmul+3
  2485  06B8  3008               	movlw	8
  2486  06B9                     u2215:
  2487  06B9  1003               	clrc
  2488  06BA  0DC2               	rlf	??___flmul,f
  2489  06BB  0DC3               	rlf	??___flmul+1,f
  2490  06BC  0DC4               	rlf	??___flmul+2,f
  2491  06BD  0DC5               	rlf	??___flmul+3,f
  2492  06BE                     u2210:
  2493  06BE  3EFF               	addlw	-1
  2494  06BF  1D03               	skipz
  2495  06C0  2EB9               	goto	u2215
  2496  06C1  0842               	movf	??___flmul,w
  2497  06C2  07CE               	addwf	___flmul@prod,f
  2498  06C3  0843               	movf	??___flmul+1,w
  2499  06C4  1103               	clrz
  2500  06C5  1803               	skipnc
  2501  06C6  3E01               	addlw	1
  2502  06C7  1903               	skipnz
  2503  06C8  2ECA               	goto	u2221
  2504  06C9  07CF               	addwf	___flmul@prod+1,f
  2505  06CA                     u2221:
  2506  06CA  0844               	movf	??___flmul+2,w
  2507  06CB  1103               	clrz
  2508  06CC  1803               	skipnc
  2509  06CD  3E01               	addlw	1
  2510  06CE  1903               	skipnz
  2511  06CF  2ED1               	goto	u2222
  2512  06D0  07D0               	addwf	___flmul@prod+2,f
  2513  06D1                     u2222:
  2514  06D1  0845               	movf	??___flmul+3,w
  2515  06D2  1103               	clrz
  2516  06D3  1803               	skipnc
  2517  06D4  3E01               	addlw	1
  2518  06D5  1903               	skipnz
  2519  06D6  2ED8               	goto	u2223
  2520  06D7  07D1               	addwf	___flmul@prod+3,f
  2521  06D8                     u2223:
  2522  06D8                     l1918:
  2523  06D8  0848               	movf	___flmul@grs,w
  2524  06D9  00C2               	movwf	??___flmul
  2525  06DA  0849               	movf	___flmul@grs+1,w
  2526  06DB  00C3               	movwf	??___flmul+1
  2527  06DC  084A               	movf	___flmul@grs+2,w
  2528  06DD  00C4               	movwf	??___flmul+2
  2529  06DE  084B               	movf	___flmul@grs+3,w
  2530  06DF  00C5               	movwf	??___flmul+3
  2531  06E0  3018               	movlw	24
  2532  06E1                     u2235:
  2533  06E1  1003               	clrc
  2534  06E2  0CC5               	rrf	??___flmul+3,f
  2535  06E3  0CC4               	rrf	??___flmul+2,f
  2536  06E4  0CC3               	rrf	??___flmul+1,f
  2537  06E5  0CC2               	rrf	??___flmul,f
  2538  06E6                     u2230:
  2539  06E6  3EFF               	addlw	-1
  2540  06E7  1D03               	skipz
  2541  06E8  2EE1               	goto	u2235
  2542  06E9  0842               	movf	??___flmul,w
  2543  06EA  07CE               	addwf	___flmul@prod,f
  2544  06EB  0843               	movf	??___flmul+1,w
  2545  06EC  1103               	clrz
  2546  06ED  1803               	skipnc
  2547  06EE  3E01               	addlw	1
  2548  06EF  1903               	skipnz
  2549  06F0  2EF2               	goto	u2241
  2550  06F1  07CF               	addwf	___flmul@prod+1,f
  2551  06F2                     u2241:
  2552  06F2  0844               	movf	??___flmul+2,w
  2553  06F3  1103               	clrz
  2554  06F4  1803               	skipnc
  2555  06F5  3E01               	addlw	1
  2556  06F6  1903               	skipnz
  2557  06F7  2EF9               	goto	u2242
  2558  06F8  07D0               	addwf	___flmul@prod+2,f
  2559  06F9                     u2242:
  2560  06F9  0845               	movf	??___flmul+3,w
  2561  06FA  1103               	clrz
  2562  06FB  1803               	skipnc
  2563  06FC  3E01               	addlw	1
  2564  06FD  1903               	skipnz
  2565  06FE  2F00               	goto	u2243
  2566  06FF  07D1               	addwf	___flmul@prod+3,f
  2567  0700                     u2243:
  2568  0700                     l1920:
  2569  0700  3008               	movlw	8
  2570  0701  00C2               	movwf	??___flmul
  2571  0702                     u2255:
  2572  0702  1003               	clrc
  2573  0703  0DC8               	rlf	___flmul@grs,f
  2574  0704  0DC9               	rlf	___flmul@grs+1,f
  2575  0705  0DCA               	rlf	___flmul@grs+2,f
  2576  0706  0DCB               	rlf	___flmul@grs+3,f
  2577  0707  0BC2               	decfsz	??___flmul,f
  2578  0708  2F02               	goto	u2255
  2579  0709                     l1922:
  2580  0709  084D               	movf	___flmul@bexp,w
  2581  070A  074C               	addwf	___flmul@aexp,w
  2582  070B  00C2               	movwf	??___flmul
  2583  070C  01C3               	clrf	??___flmul+1
  2584  070D  0DC3               	rlf	??___flmul+1,f
  2585  070E  0842               	movf	??___flmul,w
  2586  070F  3E82               	addlw	130
  2587  0710  00D2               	movwf	___flmul@temp
  2588  0711  0843               	movf	??___flmul+1,w
  2589  0712  1803               	skipnc
  2590  0713  3E01               	addlw	1
  2591  0714  3EFF               	addlw	255
  2592  0715  00D3               	movwf	___flmul@temp+1
  2593  0716  2F34               	goto	l1934
  2594  0717                     l1924:
  2595  0717  3001               	movlw	1
  2596  0718  00C2               	movwf	??___flmul
  2597  0719                     u2265:
  2598  0719  1003               	clrc
  2599  071A  0DCE               	rlf	___flmul@prod,f
  2600  071B  0DCF               	rlf	___flmul@prod+1,f
  2601  071C  0DD0               	rlf	___flmul@prod+2,f
  2602  071D  0DD1               	rlf	___flmul@prod+3,f
  2603  071E  0BC2               	decfsz	??___flmul,f
  2604  071F  2F19               	goto	u2265
  2605  0720                     l1926:
  2606  0720  1FCB               	btfss	___flmul@grs+3,7
  2607  0721  2F23               	goto	u2271
  2608  0722  2F24               	goto	u2270
  2609  0723                     u2271:
  2610  0723  2F25               	goto	l1930
  2611  0724                     u2270:
  2612  0724                     l1928:
  2613  0724  144E               	bsf	___flmul@prod,0
  2614  0725                     l1930:
  2615  0725  3001               	movlw	1
  2616  0726  00C2               	movwf	??___flmul
  2617  0727                     u2285:
  2618  0727  1003               	clrc
  2619  0728  0DC8               	rlf	___flmul@grs,f
  2620  0729  0DC9               	rlf	___flmul@grs+1,f
  2621  072A  0DCA               	rlf	___flmul@grs+2,f
  2622  072B  0DCB               	rlf	___flmul@grs+3,f
  2623  072C  0BC2               	decfsz	??___flmul,f
  2624  072D  2F27               	goto	u2285
  2625  072E                     l1932:
  2626  072E  30FF               	movlw	255
  2627  072F  07D2               	addwf	___flmul@temp,f
  2628  0730  1803               	skipnc
  2629  0731  0AD3               	incf	___flmul@temp+1,f
  2630  0732  30FF               	movlw	255
  2631  0733  07D3               	addwf	___flmul@temp+1,f
  2632  0734                     l1934:
  2633  0734  1FD0               	btfss	___flmul@prod+2,7
  2634  0735  2F37               	goto	u2291
  2635  0736  2F38               	goto	u2290
  2636  0737                     u2291:
  2637  0737  2F17               	goto	l1924
  2638  0738                     u2290:
  2639  0738                     l1936:
  2640  0738  01CC               	clrf	___flmul@aexp
  2641  0739                     l1938:
  2642  0739  1FCB               	btfss	___flmul@grs+3,7
  2643  073A  2F3C               	goto	u2301
  2644  073B  2F3D               	goto	u2300
  2645  073C                     u2301:
  2646  073C  2F59               	goto	l1946
  2647  073D                     u2300:
  2648  073D                     l1940:
  2649  073D  30FF               	movlw	255
  2650  073E  0548               	andwf	___flmul@grs,w
  2651  073F  00C2               	movwf	??___flmul
  2652  0740  30FF               	movlw	255
  2653  0741  0549               	andwf	___flmul@grs+1,w
  2654  0742  00C3               	movwf	??___flmul+1
  2655  0743  30FF               	movlw	255
  2656  0744  054A               	andwf	___flmul@grs+2,w
  2657  0745  00C4               	movwf	??___flmul+2
  2658  0746  307F               	movlw	127
  2659  0747  054B               	andwf	___flmul@grs+3,w
  2660  0748  00C5               	movwf	??___flmul+3
  2661  0749  0845               	movf	??___flmul+3,w
  2662  074A  0444               	iorwf	??___flmul+2,w
  2663  074B  0443               	iorwf	??___flmul+1,w
  2664  074C  0442               	iorwf	??___flmul,w
  2665  074D  1903               	skipnz
  2666  074E  2F50               	goto	u2311
  2667  074F  2F51               	goto	u2310
  2668  0750                     u2311:
  2669  0750  2F54               	goto	l603
  2670  0751                     u2310:
  2671  0751                     l1942:
  2672  0751  01CC               	clrf	___flmul@aexp
  2673  0752  0ACC               	incf	___flmul@aexp,f
  2674  0753  2F59               	goto	l1946
  2675  0754                     l603:
  2676  0754  1C4E               	btfss	___flmul@prod,0
  2677  0755  2F57               	goto	u2321
  2678  0756  2F58               	goto	u2320
  2679  0757                     u2321:
  2680  0757  2F59               	goto	l1946
  2681  0758                     u2320:
  2682  0758  2F51               	goto	l1942
  2683  0759                     l1946:
  2684  0759  084C               	movf	___flmul@aexp,w
  2685  075A  1903               	btfsc	3,2
  2686  075B  2F5D               	goto	u2331
  2687  075C  2F5E               	goto	u2330
  2688  075D                     u2331:
  2689  075D  2F8F               	goto	l1956
  2690  075E                     u2330:
  2691  075E                     l1948:
  2692  075E  3001               	movlw	1
  2693  075F  07CE               	addwf	___flmul@prod,f
  2694  0760  3000               	movlw	0
  2695  0761  1803               	skipnc
  2696  0762  3001               	movlw	1
  2697  0763  07CF               	addwf	___flmul@prod+1,f
  2698  0764  3000               	movlw	0
  2699  0765  1803               	skipnc
  2700  0766  3001               	movlw	1
  2701  0767  07D0               	addwf	___flmul@prod+2,f
  2702  0768  3000               	movlw	0
  2703  0769  1803               	skipnc
  2704  076A  3001               	movlw	1
  2705  076B  07D1               	addwf	___flmul@prod+3,f
  2706  076C                     l1950:
  2707  076C  1C51               	btfss	___flmul@prod+3,0
  2708  076D  2F6F               	goto	u2341
  2709  076E  2F70               	goto	u2340
  2710  076F                     u2341:
  2711  076F  2F8F               	goto	l1956
  2712  0770                     u2340:
  2713  0770                     l1952:
  2714  0770  084E               	movf	___flmul@prod,w
  2715  0771  00C2               	movwf	??___flmul
  2716  0772  084F               	movf	___flmul@prod+1,w
  2717  0773  00C3               	movwf	??___flmul+1
  2718  0774  0850               	movf	___flmul@prod+2,w
  2719  0775  00C4               	movwf	??___flmul+2
  2720  0776  0851               	movf	___flmul@prod+3,w
  2721  0777  00C5               	movwf	??___flmul+3
  2722  0778  3001               	movlw	1
  2723  0779  00C6               	movwf	??___flmul+4
  2724  077A                     u2355:
  2725  077A  0D45               	rlf	??___flmul+3,w
  2726  077B  0CC5               	rrf	??___flmul+3,f
  2727  077C  0CC4               	rrf	??___flmul+2,f
  2728  077D  0CC3               	rrf	??___flmul+1,f
  2729  077E  0CC2               	rrf	??___flmul,f
  2730  077F                     u2350:
  2731  077F  0BC6               	decfsz	??___flmul+4,f
  2732  0780  2F7A               	goto	u2355
  2733  0781  0845               	movf	??___flmul+3,w
  2734  0782  00D1               	movwf	___flmul@prod+3
  2735  0783  0844               	movf	??___flmul+2,w
  2736  0784  00D0               	movwf	___flmul@prod+2
  2737  0785  0843               	movf	??___flmul+1,w
  2738  0786  00CF               	movwf	___flmul@prod+1
  2739  0787  0842               	movf	??___flmul,w
  2740  0788  00CE               	movwf	___flmul@prod
  2741  0789                     l1954:
  2742  0789  3001               	movlw	1
  2743  078A  07D2               	addwf	___flmul@temp,f
  2744  078B  1803               	skipnc
  2745  078C  0AD3               	incf	___flmul@temp+1,f
  2746  078D  3000               	movlw	0
  2747  078E  07D3               	addwf	___flmul@temp+1,f
  2748  078F                     l1956:
  2749  078F  0853               	movf	___flmul@temp+1,w
  2750  0790  3A80               	xorlw	128
  2751  0791  00FF               	movwf	btemp+1
  2752  0792  3080               	movlw	128
  2753  0793  027F               	subwf	btemp+1,w
  2754  0794  1D03               	skipz
  2755  0795  2F98               	goto	u2365
  2756  0796  30FF               	movlw	255
  2757  0797  0252               	subwf	___flmul@temp,w
  2758  0798                     u2365:
  2759  0798  1C03               	skipc
  2760  0799  2F9B               	goto	u2361
  2761  079A  2F9C               	goto	u2360
  2762  079B                     u2361:
  2763  079B  2FA7               	goto	l1960
  2764  079C                     u2360:
  2765  079C                     l1958:
  2766  079C  307F               	movlw	127
  2767  079D  1283               	bcf	3,5	;RP0=0, select bank0
  2768  079E  1303               	bcf	3,6	;RP1=0, select bank0
  2769  079F  00D1               	movwf	___flmul@prod+3
  2770  07A0  3080               	movlw	128
  2771  07A1  00D0               	movwf	___flmul@prod+2
  2772  07A2  3000               	movlw	0
  2773  07A3  00CF               	movwf	___flmul@prod+1
  2774  07A4  3000               	movlw	0
  2775  07A5  00CE               	movwf	___flmul@prod
  2776  07A6  2FDC               	goto	l609
  2777  07A7                     l1960:
  2778  07A7  1283               	bcf	3,5	;RP0=0, select bank0
  2779  07A8  1303               	bcf	3,6	;RP1=0, select bank0
  2780  07A9  0853               	movf	___flmul@temp+1,w
  2781  07AA  3A80               	xorlw	128
  2782  07AB  00FF               	movwf	btemp+1
  2783  07AC  3080               	movlw	128
  2784  07AD  027F               	subwf	btemp+1,w
  2785  07AE  1D03               	skipz
  2786  07AF  2FB2               	goto	u2375
  2787  07B0  3001               	movlw	1
  2788  07B1  0252               	subwf	___flmul@temp,w
  2789  07B2                     u2375:
  2790  07B2  1803               	skipnc
  2791  07B3  2FB5               	goto	u2371
  2792  07B4  2FB6               	goto	u2370
  2793  07B5                     u2371:
  2794  07B5  2FC2               	goto	l1966
  2795  07B6                     u2370:
  2796  07B6                     l1962:
  2797  07B6  3000               	movlw	0
  2798  07B7  1283               	bcf	3,5	;RP0=0, select bank0
  2799  07B8  1303               	bcf	3,6	;RP1=0, select bank0
  2800  07B9  00D1               	movwf	___flmul@prod+3
  2801  07BA  3000               	movlw	0
  2802  07BB  00D0               	movwf	___flmul@prod+2
  2803  07BC  3000               	movlw	0
  2804  07BD  00CF               	movwf	___flmul@prod+1
  2805  07BE  3000               	movlw	0
  2806  07BF  00CE               	movwf	___flmul@prod
  2807  07C0                     l1964:
  2808  07C0  01C7               	clrf	___flmul@sign
  2809  07C1  2FDC               	goto	l609
  2810  07C2                     l1966:
  2811  07C2  1283               	bcf	3,5	;RP0=0, select bank0
  2812  07C3  1303               	bcf	3,6	;RP1=0, select bank0
  2813  07C4  0852               	movf	___flmul@temp,w
  2814  07C5  00C2               	movwf	??___flmul
  2815  07C6  0842               	movf	??___flmul,w
  2816  07C7  00CD               	movwf	___flmul@bexp
  2817  07C8  30FF               	movlw	255
  2818  07C9  05CE               	andwf	___flmul@prod,f
  2819  07CA  30FF               	movlw	255
  2820  07CB  05CF               	andwf	___flmul@prod+1,f
  2821  07CC  307F               	movlw	127
  2822  07CD  05D0               	andwf	___flmul@prod+2,f
  2823  07CE  3000               	movlw	0
  2824  07CF  05D1               	andwf	___flmul@prod+3,f
  2825  07D0                     l1968:
  2826  07D0  1C4D               	btfss	___flmul@bexp,0
  2827  07D1  2FD3               	goto	u2381
  2828  07D2  2FD4               	goto	u2380
  2829  07D3                     u2381:
  2830  07D3  2FD5               	goto	l1972
  2831  07D4                     u2380:
  2832  07D4                     l1970:
  2833  07D4  17D0               	bsf	___flmul@prod+2,7
  2834  07D5                     l1972:
  2835  07D5  084D               	movf	___flmul@bexp,w
  2836  07D6  00C2               	movwf	??___flmul
  2837  07D7  1003               	clrc
  2838  07D8  0C42               	rrf	??___flmul,w
  2839  07D9  00C3               	movwf	??___flmul+1
  2840  07DA  0843               	movf	??___flmul+1,w
  2841  07DB  00D1               	movwf	___flmul@prod+3
  2842  07DC                     l609:
  2843  07DC  0847               	movf	___flmul@sign,w
  2844  07DD  00C2               	movwf	??___flmul
  2845  07DE  0842               	movf	??___flmul,w
  2846  07DF  04D1               	iorwf	___flmul@prod+3,f
  2847  07E0                     l1974:
  2848  07E0  0851               	movf	___flmul@prod+3,w
  2849  07E1  00BD               	movwf	?___flmul+3
  2850  07E2  0850               	movf	___flmul@prod+2,w
  2851  07E3  00BC               	movwf	?___flmul+2
  2852  07E4  084F               	movf	___flmul@prod+1,w
  2853  07E5  00BB               	movwf	?___flmul+1
  2854  07E6  084E               	movf	___flmul@prod,w
  2855  07E7  00BA               	movwf	?___flmul
  2856  07E8                     l597:
  2857  07E8  0008               	return
  2858  07E9                     __end_of___flmul:
  2859                           
  2860                           	psect	text6
  2861  0C86                     __ptext6:	
  2862 ;; *************** function __Umul8_16 *****************
  2863 ;; Defined at:
  2864 ;;		line 4 in file "C:\Program Files\Microchip\xc8\v2.32\pic\sources\c90\common\Umul8_16.c"
  2865 ;; Parameters:    Size  Location     Type
  2866 ;;  multiplier      1    wreg     unsigned char 
  2867 ;;  multiplicand    1    0[COMMON] unsigned char 
  2868 ;; Auto vars:     Size  Location     Type
  2869 ;;  multiplier      1    8[COMMON] unsigned char 
  2870 ;;  word_mpld       2    6[COMMON] unsigned int 
  2871 ;;  product         2    4[COMMON] unsigned int 
  2872 ;; Return value:  Size  Location     Type
  2873 ;;                  2    0[COMMON] unsigned int 
  2874 ;; Registers used:
  2875 ;;		wreg, status,2, status,0
  2876 ;; Tracked objects:
  2877 ;;		On entry : 0/0
  2878 ;;		On exit  : 0/0
  2879 ;;		Unchanged: 0/0
  2880 ;; Data sizes:     COMMON   BANK0   BANK1   BANK3   BANK2
  2881 ;;      Params:         2       0       0       0       0
  2882 ;;      Locals:         5       0       0       0       0
  2883 ;;      Temps:          2       0       0       0       0
  2884 ;;      Totals:         9       0       0       0       0
  2885 ;;Total ram usage:        9 bytes
  2886 ;; Hardware stack levels used: 1
  2887 ;; This function calls:
  2888 ;;		Nothing
  2889 ;; This function is called by:
  2890 ;;		___flmul
  2891 ;; This function uses a non-reentrant model
  2892 ;;
  2893                           
  2894                           
  2895                           ;psect for function __Umul8_16
  2896  0C86                     __Umul8_16:
  2897                           
  2898                           ;incstack = 0
  2899                           ; Regs used in __Umul8_16: [wreg+status,2+status,0]
  2900                           ;__Umul8_16@multiplier stored from wreg
  2901  0C86  00F8               	movwf	__Umul8_16@multiplier
  2902  0C87                     l1528:
  2903  0C87  01F4               	clrf	__Umul8_16@product
  2904  0C88  01F5               	clrf	__Umul8_16@product+1
  2905  0C89                     l1530:
  2906  0C89  0870               	movf	__Umul8_16@multiplicand,w
  2907  0C8A  00F2               	movwf	??__Umul8_16
  2908  0C8B  01F3               	clrf	??__Umul8_16+1
  2909  0C8C  0872               	movf	??__Umul8_16,w
  2910  0C8D  00F6               	movwf	__Umul8_16@word_mpld
  2911  0C8E  0873               	movf	??__Umul8_16+1,w
  2912  0C8F  00F7               	movwf	__Umul8_16@word_mpld+1
  2913  0C90                     l1532:
  2914  0C90  1C78               	btfss	__Umul8_16@multiplier,0
  2915  0C91  2C93               	goto	u1401
  2916  0C92  2C94               	goto	u1400
  2917  0C93                     u1401:
  2918  0C93  2C9A               	goto	l616
  2919  0C94                     u1400:
  2920  0C94                     l1534:
  2921  0C94  0876               	movf	__Umul8_16@word_mpld,w
  2922  0C95  07F4               	addwf	__Umul8_16@product,f
  2923  0C96  1803               	skipnc
  2924  0C97  0AF5               	incf	__Umul8_16@product+1,f
  2925  0C98  0877               	movf	__Umul8_16@word_mpld+1,w
  2926  0C99  07F5               	addwf	__Umul8_16@product+1,f
  2927  0C9A                     l616:
  2928  0C9A  3001               	movlw	1
  2929  0C9B                     u1415:
  2930  0C9B  1003               	clrc
  2931  0C9C  0DF6               	rlf	__Umul8_16@word_mpld,f
  2932  0C9D  0DF7               	rlf	__Umul8_16@word_mpld+1,f
  2933  0C9E  3EFF               	addlw	-1
  2934  0C9F  1D03               	skipz
  2935  0CA0  2C9B               	goto	u1415
  2936  0CA1  1003               	clrc
  2937  0CA2  0CF8               	rrf	__Umul8_16@multiplier,f
  2938  0CA3                     l1536:
  2939  0CA3  0878               	movf	__Umul8_16@multiplier,w
  2940  0CA4  1D03               	btfss	3,2
  2941  0CA5  2CA7               	goto	u1421
  2942  0CA6  2CA8               	goto	u1420
  2943  0CA7                     u1421:
  2944  0CA7  2C90               	goto	l1532
  2945  0CA8                     u1420:
  2946  0CA8                     l1538:
  2947  0CA8  0875               	movf	__Umul8_16@product+1,w
  2948  0CA9  00F1               	movwf	?__Umul8_16+1
  2949  0CAA  0874               	movf	__Umul8_16@product,w
  2950  0CAB  00F0               	movwf	?__Umul8_16
  2951  0CAC                     l618:
  2952  0CAC  0008               	return
  2953  0CAD                     __end_of__Umul8_16:
  2954                           
  2955                           	psect	text7
  2956  02AB                     __ptext7:	
  2957 ;; *************** function ___fldiv *****************
  2958 ;; Defined at:
  2959 ;;		line 8 in file "C:\Program Files\Microchip\xc8\v2.32\pic\sources\c90\common\sprcdiv.c"
  2960 ;; Parameters:    Size  Location     Type
  2961 ;;  a               4    0[BANK0 ] unsigned int 
  2962 ;;  b               4    4[BANK0 ] unsigned int 
  2963 ;; Auto vars:     Size  Location     Type
  2964 ;;  grs             4   20[BANK0 ] unsigned long 
  2965 ;;  rem             4   13[BANK0 ] unsigned long 
  2966 ;;  new_exp         2   18[BANK0 ] int 
  2967 ;;  aexp            1   25[BANK0 ] unsigned char 
  2968 ;;  bexp            1   24[BANK0 ] unsigned char 
  2969 ;;  sign            1   17[BANK0 ] unsigned char 
  2970 ;; Return value:  Size  Location     Type
  2971 ;;                  4    0[BANK0 ] unsigned char 
  2972 ;; Registers used:
  2973 ;;		wreg, status,2, status,0, btemp+1
  2974 ;; Tracked objects:
  2975 ;;		On entry : 0/0
  2976 ;;		On exit  : 0/0
  2977 ;;		Unchanged: 0/0
  2978 ;; Data sizes:     COMMON   BANK0   BANK1   BANK3   BANK2
  2979 ;;      Params:         0       8       0       0       0
  2980 ;;      Locals:         0      13       0       0       0
  2981 ;;      Temps:          0       5       0       0       0
  2982 ;;      Totals:         0      26       0       0       0
  2983 ;;Total ram usage:       26 bytes
  2984 ;; Hardware stack levels used: 1
  2985 ;; This function calls:
  2986 ;;		Nothing
  2987 ;; This function is called by:
  2988 ;;		_LM35ReadTemp
  2989 ;; This function uses a non-reentrant model
  2990 ;;
  2991                           
  2992                           
  2993                           ;psect for function ___fldiv
  2994  02AB                     ___fldiv:
  2995  02AB                     l1696:	
  2996                           ;incstack = 0
  2997                           ; Regs used in ___fldiv: [wreg+status,2+status,0+btemp+1]
  2998                           
  2999  02AB  1283               	bcf	3,5	;RP0=0, select bank0
  3000  02AC  1303               	bcf	3,6	;RP1=0, select bank0
  3001  02AD  0827               	movf	___fldiv@b+3,w
  3002  02AE  3980               	andlw	128
  3003  02AF  00A8               	movwf	??___fldiv
  3004  02B0  0828               	movf	??___fldiv,w
  3005  02B1  00B1               	movwf	___fldiv@sign
  3006  02B2                     l1698:
  3007  02B2  0827               	movf	___fldiv@b+3,w
  3008  02B3  00A8               	movwf	??___fldiv
  3009  02B4  0728               	addwf	??___fldiv,w
  3010  02B5  00A9               	movwf	??___fldiv+1
  3011  02B6  0829               	movf	??___fldiv+1,w
  3012  02B7  00B8               	movwf	___fldiv@bexp
  3013  02B8                     l1700:
  3014  02B8  1FA6               	btfss	___fldiv@b+2,7
  3015  02B9  2ABB               	goto	u1731
  3016  02BA  2ABC               	goto	u1730
  3017  02BB                     u1731:
  3018  02BB  2ABD               	goto	l1704
  3019  02BC                     u1730:
  3020  02BC                     l1702:
  3021  02BC  1438               	bsf	___fldiv@bexp,0
  3022  02BD                     l1704:
  3023  02BD  0838               	movf	___fldiv@bexp,w
  3024  02BE  1903               	btfsc	3,2
  3025  02BF  2AC1               	goto	u1741
  3026  02C0  2AC2               	goto	u1740
  3027  02C1                     u1741:
  3028  02C1  2AD2               	goto	l1714
  3029  02C2                     u1740:
  3030  02C2                     l1706:
  3031  02C2  0A38               	incf	___fldiv@bexp,w
  3032  02C3  1D03               	btfss	3,2
  3033  02C4  2AC6               	goto	u1751
  3034  02C5  2AC7               	goto	u1750
  3035  02C6                     u1751:
  3036  02C6  2ACF               	goto	l1710
  3037  02C7                     u1750:
  3038  02C7                     l1708:
  3039  02C7  3000               	movlw	0
  3040  02C8  00A7               	movwf	___fldiv@b+3
  3041  02C9  3000               	movlw	0
  3042  02CA  00A6               	movwf	___fldiv@b+2
  3043  02CB  3000               	movlw	0
  3044  02CC  00A5               	movwf	___fldiv@b+1
  3045  02CD  3000               	movlw	0
  3046  02CE  00A4               	movwf	___fldiv@b
  3047  02CF                     l1710:
  3048  02CF  17A6               	bsf	___fldiv@b+2,7
  3049  02D0                     l1712:
  3050  02D0  01A7               	clrf	___fldiv@b+3
  3051  02D1  2ADA               	goto	l1716
  3052  02D2                     l1714:
  3053  02D2  3000               	movlw	0
  3054  02D3  00A7               	movwf	___fldiv@b+3
  3055  02D4  3000               	movlw	0
  3056  02D5  00A6               	movwf	___fldiv@b+2
  3057  02D6  3000               	movlw	0
  3058  02D7  00A5               	movwf	___fldiv@b+1
  3059  02D8  3000               	movlw	0
  3060  02D9  00A4               	movwf	___fldiv@b
  3061  02DA                     l1716:
  3062  02DA  0823               	movf	___fldiv@a+3,w
  3063  02DB  3980               	andlw	128
  3064  02DC  00A8               	movwf	??___fldiv
  3065  02DD  0828               	movf	??___fldiv,w
  3066  02DE  06B1               	xorwf	___fldiv@sign,f
  3067  02DF                     l1718:
  3068  02DF  0823               	movf	___fldiv@a+3,w
  3069  02E0  00A8               	movwf	??___fldiv
  3070  02E1  0728               	addwf	??___fldiv,w
  3071  02E2  00A9               	movwf	??___fldiv+1
  3072  02E3  0829               	movf	??___fldiv+1,w
  3073  02E4  00B9               	movwf	___fldiv@aexp
  3074  02E5                     l1720:
  3075  02E5  1FA2               	btfss	___fldiv@a+2,7
  3076  02E6  2AE8               	goto	u1761
  3077  02E7  2AE9               	goto	u1760
  3078  02E8                     u1761:
  3079  02E8  2AEA               	goto	l1724
  3080  02E9                     u1760:
  3081  02E9                     l1722:
  3082  02E9  1439               	bsf	___fldiv@aexp,0
  3083  02EA                     l1724:
  3084  02EA  0839               	movf	___fldiv@aexp,w
  3085  02EB  1903               	btfsc	3,2
  3086  02EC  2AEE               	goto	u1771
  3087  02ED  2AEF               	goto	u1770
  3088  02EE                     u1771:
  3089  02EE  2AFF               	goto	l1734
  3090  02EF                     u1770:
  3091  02EF                     l1726:
  3092  02EF  0A39               	incf	___fldiv@aexp,w
  3093  02F0  1D03               	btfss	3,2
  3094  02F1  2AF3               	goto	u1781
  3095  02F2  2AF4               	goto	u1780
  3096  02F3                     u1781:
  3097  02F3  2AFC               	goto	l1730
  3098  02F4                     u1780:
  3099  02F4                     l1728:
  3100  02F4  3000               	movlw	0
  3101  02F5  00A3               	movwf	___fldiv@a+3
  3102  02F6  3000               	movlw	0
  3103  02F7  00A2               	movwf	___fldiv@a+2
  3104  02F8  3000               	movlw	0
  3105  02F9  00A1               	movwf	___fldiv@a+1
  3106  02FA  3000               	movlw	0
  3107  02FB  00A0               	movwf	___fldiv@a
  3108  02FC                     l1730:
  3109  02FC  17A2               	bsf	___fldiv@a+2,7
  3110  02FD                     l1732:
  3111  02FD  01A3               	clrf	___fldiv@a+3
  3112  02FE  2B07               	goto	l557
  3113  02FF                     l1734:
  3114  02FF  3000               	movlw	0
  3115  0300  00A3               	movwf	___fldiv@a+3
  3116  0301  3000               	movlw	0
  3117  0302  00A2               	movwf	___fldiv@a+2
  3118  0303  3000               	movlw	0
  3119  0304  00A1               	movwf	___fldiv@a+1
  3120  0305  3000               	movlw	0
  3121  0306  00A0               	movwf	___fldiv@a
  3122  0307                     l557:
  3123  0307  0823               	movf	___fldiv@a+3,w
  3124  0308  0422               	iorwf	___fldiv@a+2,w
  3125  0309  0421               	iorwf	___fldiv@a+1,w
  3126  030A  0420               	iorwf	___fldiv@a,w
  3127  030B  1D03               	skipz
  3128  030C  2B0E               	goto	u1791
  3129  030D  2B0F               	goto	u1790
  3130  030E                     u1791:
  3131  030E  2B28               	goto	l1744
  3132  030F                     u1790:
  3133  030F                     l1736:
  3134  030F  3000               	movlw	0
  3135  0310  00A7               	movwf	___fldiv@b+3
  3136  0311  3000               	movlw	0
  3137  0312  00A6               	movwf	___fldiv@b+2
  3138  0313  3000               	movlw	0
  3139  0314  00A5               	movwf	___fldiv@b+1
  3140  0315  3000               	movlw	0
  3141  0316  00A4               	movwf	___fldiv@b
  3142  0317  3080               	movlw	128
  3143  0318  04A6               	iorwf	___fldiv@b+2,f
  3144  0319  307F               	movlw	127
  3145  031A  04A7               	iorwf	___fldiv@b+3,f
  3146  031B                     l1738:
  3147  031B  0831               	movf	___fldiv@sign,w
  3148  031C  00A8               	movwf	??___fldiv
  3149  031D  0828               	movf	??___fldiv,w
  3150  031E  04A7               	iorwf	___fldiv@b+3,f
  3151  031F                     l1740:
  3152  031F  0827               	movf	___fldiv@b+3,w
  3153  0320  00A3               	movwf	?___fldiv+3
  3154  0321  0826               	movf	___fldiv@b+2,w
  3155  0322  00A2               	movwf	?___fldiv+2
  3156  0323  0825               	movf	___fldiv@b+1,w
  3157  0324  00A1               	movwf	?___fldiv+1
  3158  0325  0824               	movf	___fldiv@b,w
  3159  0326  00A0               	movwf	?___fldiv
  3160  0327  2C87               	goto	l559
  3161  0328                     l1744:
  3162  0328  0838               	movf	___fldiv@bexp,w
  3163  0329  1D03               	btfss	3,2
  3164  032A  2B2C               	goto	u1801
  3165  032B  2B2D               	goto	u1800
  3166  032C                     u1801:
  3167  032C  2B36               	goto	l1750
  3168  032D                     u1800:
  3169  032D                     l1746:
  3170  032D  3000               	movlw	0
  3171  032E  00A3               	movwf	?___fldiv+3
  3172  032F  3000               	movlw	0
  3173  0330  00A2               	movwf	?___fldiv+2
  3174  0331  3000               	movlw	0
  3175  0332  00A1               	movwf	?___fldiv+1
  3176  0333  3000               	movlw	0
  3177  0334  00A0               	movwf	?___fldiv
  3178  0335  2C87               	goto	l559
  3179  0336                     l1750:
  3180  0336  0838               	movf	___fldiv@bexp,w
  3181  0337  00A8               	movwf	??___fldiv
  3182  0338  01A9               	clrf	??___fldiv+1
  3183  0339  0829               	movf	??___fldiv+1,w
  3184  033A  00AB               	movwf	??___fldiv+3
  3185  033B  0839               	movf	___fldiv@aexp,w
  3186  033C  0228               	subwf	??___fldiv,w
  3187  033D  00AA               	movwf	??___fldiv+2
  3188  033E  1C03               	skipc
  3189  033F  03AB               	decf	??___fldiv+3,f
  3190  0340  082A               	movf	??___fldiv+2,w
  3191  0341  3E7F               	addlw	127
  3192  0342  00B2               	movwf	___fldiv@new_exp
  3193  0343  082B               	movf	??___fldiv+3,w
  3194  0344  1803               	skipnc
  3195  0345  3E01               	addlw	1
  3196  0346  3E00               	addlw	0
  3197  0347  00B3               	movwf	___fldiv@new_exp+1
  3198  0348                     l1752:
  3199  0348  0827               	movf	___fldiv@b+3,w
  3200  0349  00B0               	movwf	___fldiv@rem+3
  3201  034A  0826               	movf	___fldiv@b+2,w
  3202  034B  00AF               	movwf	___fldiv@rem+2
  3203  034C  0825               	movf	___fldiv@b+1,w
  3204  034D  00AE               	movwf	___fldiv@rem+1
  3205  034E  0824               	movf	___fldiv@b,w
  3206  034F  00AD               	movwf	___fldiv@rem
  3207  0350                     l1754:
  3208  0350  3000               	movlw	0
  3209  0351  00A7               	movwf	___fldiv@b+3
  3210  0352  3000               	movlw	0
  3211  0353  00A6               	movwf	___fldiv@b+2
  3212  0354  3000               	movlw	0
  3213  0355  00A5               	movwf	___fldiv@b+1
  3214  0356  3000               	movlw	0
  3215  0357  00A4               	movwf	___fldiv@b
  3216  0358                     l1756:
  3217  0358  3000               	movlw	0
  3218  0359  00B7               	movwf	___fldiv@grs+3
  3219  035A  3000               	movlw	0
  3220  035B  00B6               	movwf	___fldiv@grs+2
  3221  035C  3000               	movlw	0
  3222  035D  00B5               	movwf	___fldiv@grs+1
  3223  035E  3000               	movlw	0
  3224  035F  00B4               	movwf	___fldiv@grs
  3225  0360                     l1758:
  3226  0360  01B9               	clrf	___fldiv@aexp
  3227  0361  2BAC               	goto	l1778
  3228  0362                     l1760:
  3229  0362  0839               	movf	___fldiv@aexp,w
  3230  0363  1903               	btfsc	3,2
  3231  0364  2B66               	goto	u1811
  3232  0365  2B67               	goto	u1810
  3233  0366                     u1811:
  3234  0366  2B87               	goto	l1770
  3235  0367                     u1810:
  3236  0367                     l1762:
  3237  0367  3001               	movlw	1
  3238  0368  00A8               	movwf	??___fldiv
  3239  0369                     u1825:
  3240  0369  1003               	clrc
  3241  036A  0DAD               	rlf	___fldiv@rem,f
  3242  036B  0DAE               	rlf	___fldiv@rem+1,f
  3243  036C  0DAF               	rlf	___fldiv@rem+2,f
  3244  036D  0DB0               	rlf	___fldiv@rem+3,f
  3245  036E  0BA8               	decfsz	??___fldiv,f
  3246  036F  2B69               	goto	u1825
  3247  0370  3001               	movlw	1
  3248  0371  00A8               	movwf	??___fldiv
  3249  0372                     u1835:
  3250  0372  1003               	clrc
  3251  0373  0DA4               	rlf	___fldiv@b,f
  3252  0374  0DA5               	rlf	___fldiv@b+1,f
  3253  0375  0DA6               	rlf	___fldiv@b+2,f
  3254  0376  0DA7               	rlf	___fldiv@b+3,f
  3255  0377  0BA8               	decfsz	??___fldiv,f
  3256  0378  2B72               	goto	u1835
  3257  0379                     l1764:
  3258  0379  1FB7               	btfss	___fldiv@grs+3,7
  3259  037A  2B7C               	goto	u1841
  3260  037B  2B7D               	goto	u1840
  3261  037C                     u1841:
  3262  037C  2B7E               	goto	l1768
  3263  037D                     u1840:
  3264  037D                     l1766:
  3265  037D  1424               	bsf	___fldiv@b,0
  3266  037E                     l1768:
  3267  037E  3001               	movlw	1
  3268  037F  00A8               	movwf	??___fldiv
  3269  0380                     u1855:
  3270  0380  1003               	clrc
  3271  0381  0DB4               	rlf	___fldiv@grs,f
  3272  0382  0DB5               	rlf	___fldiv@grs+1,f
  3273  0383  0DB6               	rlf	___fldiv@grs+2,f
  3274  0384  0DB7               	rlf	___fldiv@grs+3,f
  3275  0385  0BA8               	decfsz	??___fldiv,f
  3276  0386  2B80               	goto	u1855
  3277  0387                     l1770:
  3278  0387  0823               	movf	___fldiv@a+3,w
  3279  0388  0230               	subwf	___fldiv@rem+3,w
  3280  0389  1D03               	skipz
  3281  038A  2B95               	goto	u1865
  3282  038B  0822               	movf	___fldiv@a+2,w
  3283  038C  022F               	subwf	___fldiv@rem+2,w
  3284  038D  1D03               	skipz
  3285  038E  2B95               	goto	u1865
  3286  038F  0821               	movf	___fldiv@a+1,w
  3287  0390  022E               	subwf	___fldiv@rem+1,w
  3288  0391  1D03               	skipz
  3289  0392  2B95               	goto	u1865
  3290  0393  0820               	movf	___fldiv@a,w
  3291  0394  022D               	subwf	___fldiv@rem,w
  3292  0395                     u1865:
  3293  0395  1C03               	skipc
  3294  0396  2B98               	goto	u1861
  3295  0397  2B99               	goto	u1860
  3296  0398                     u1861:
  3297  0398  2BA8               	goto	l1776
  3298  0399                     u1860:
  3299  0399                     l1772:
  3300  0399  1737               	bsf	___fldiv@grs+3,6
  3301  039A                     l1774:
  3302  039A  0820               	movf	___fldiv@a,w
  3303  039B  02AD               	subwf	___fldiv@rem,f
  3304  039C  0821               	movf	___fldiv@a+1,w
  3305  039D  1C03               	skipc
  3306  039E  0F21               	incfsz	___fldiv@a+1,w
  3307  039F  02AE               	subwf	___fldiv@rem+1,f
  3308  03A0  0822               	movf	___fldiv@a+2,w
  3309  03A1  1C03               	skipc
  3310  03A2  0F22               	incfsz	___fldiv@a+2,w
  3311  03A3  02AF               	subwf	___fldiv@rem+2,f
  3312  03A4  0823               	movf	___fldiv@a+3,w
  3313  03A5  1C03               	skipc
  3314  03A6  0F23               	incfsz	___fldiv@a+3,w
  3315  03A7  02B0               	subwf	___fldiv@rem+3,f
  3316  03A8                     l1776:
  3317  03A8  3001               	movlw	1
  3318  03A9  00A8               	movwf	??___fldiv
  3319  03AA  0828               	movf	??___fldiv,w
  3320  03AB  07B9               	addwf	___fldiv@aexp,f
  3321  03AC                     l1778:
  3322  03AC  301A               	movlw	26
  3323  03AD  0239               	subwf	___fldiv@aexp,w
  3324  03AE  1C03               	skipc
  3325  03AF  2BB1               	goto	u1871
  3326  03B0  2BB2               	goto	u1870
  3327  03B1                     u1871:
  3328  03B1  2B62               	goto	l1760
  3329  03B2                     u1870:
  3330  03B2                     l1780:
  3331  03B2  0830               	movf	___fldiv@rem+3,w
  3332  03B3  042F               	iorwf	___fldiv@rem+2,w
  3333  03B4  042E               	iorwf	___fldiv@rem+1,w
  3334  03B5  042D               	iorwf	___fldiv@rem,w
  3335  03B6  1903               	skipnz
  3336  03B7  2BB9               	goto	u1881
  3337  03B8  2BBA               	goto	u1880
  3338  03B9                     u1881:
  3339  03B9  2BD9               	goto	l1794
  3340  03BA                     u1880:
  3341  03BA                     l1782:
  3342  03BA  1434               	bsf	___fldiv@grs,0
  3343  03BB  2BD9               	goto	l1794
  3344  03BC                     l1784:
  3345  03BC  3001               	movlw	1
  3346  03BD  00A8               	movwf	??___fldiv
  3347  03BE                     u1895:
  3348  03BE  1003               	clrc
  3349  03BF  0DA4               	rlf	___fldiv@b,f
  3350  03C0  0DA5               	rlf	___fldiv@b+1,f
  3351  03C1  0DA6               	rlf	___fldiv@b+2,f
  3352  03C2  0DA7               	rlf	___fldiv@b+3,f
  3353  03C3  0BA8               	decfsz	??___fldiv,f
  3354  03C4  2BBE               	goto	u1895
  3355  03C5                     l1786:
  3356  03C5  1FB7               	btfss	___fldiv@grs+3,7
  3357  03C6  2BC8               	goto	u1901
  3358  03C7  2BC9               	goto	u1900
  3359  03C8                     u1901:
  3360  03C8  2BCA               	goto	l1790
  3361  03C9                     u1900:
  3362  03C9                     l1788:
  3363  03C9  1424               	bsf	___fldiv@b,0
  3364  03CA                     l1790:
  3365  03CA  3001               	movlw	1
  3366  03CB  00A8               	movwf	??___fldiv
  3367  03CC                     u1915:
  3368  03CC  1003               	clrc
  3369  03CD  0DB4               	rlf	___fldiv@grs,f
  3370  03CE  0DB5               	rlf	___fldiv@grs+1,f
  3371  03CF  0DB6               	rlf	___fldiv@grs+2,f
  3372  03D0  0DB7               	rlf	___fldiv@grs+3,f
  3373  03D1  0BA8               	decfsz	??___fldiv,f
  3374  03D2  2BCC               	goto	u1915
  3375  03D3                     l1792:
  3376  03D3  30FF               	movlw	255
  3377  03D4  07B2               	addwf	___fldiv@new_exp,f
  3378  03D5  1803               	skipnc
  3379  03D6  0AB3               	incf	___fldiv@new_exp+1,f
  3380  03D7  30FF               	movlw	255
  3381  03D8  07B3               	addwf	___fldiv@new_exp+1,f
  3382  03D9                     l1794:
  3383  03D9  1FA6               	btfss	___fldiv@b+2,7
  3384  03DA  2BDC               	goto	u1921
  3385  03DB  2BDD               	goto	u1920
  3386  03DC                     u1921:
  3387  03DC  2BBC               	goto	l1784
  3388  03DD                     u1920:
  3389  03DD                     l1796:
  3390  03DD  01B9               	clrf	___fldiv@aexp
  3391  03DE                     l1798:
  3392  03DE  1FB7               	btfss	___fldiv@grs+3,7
  3393  03DF  2BE1               	goto	u1931
  3394  03E0  2BE2               	goto	u1930
  3395  03E1                     u1931:
  3396  03E1  2BFE               	goto	l1806
  3397  03E2                     u1930:
  3398  03E2                     l1800:
  3399  03E2  30FF               	movlw	255
  3400  03E3  0534               	andwf	___fldiv@grs,w
  3401  03E4  00A8               	movwf	??___fldiv
  3402  03E5  30FF               	movlw	255
  3403  03E6  0535               	andwf	___fldiv@grs+1,w
  3404  03E7  00A9               	movwf	??___fldiv+1
  3405  03E8  30FF               	movlw	255
  3406  03E9  0536               	andwf	___fldiv@grs+2,w
  3407  03EA  00AA               	movwf	??___fldiv+2
  3408  03EB  307F               	movlw	127
  3409  03EC  0537               	andwf	___fldiv@grs+3,w
  3410  03ED  00AB               	movwf	??___fldiv+3
  3411  03EE  082B               	movf	??___fldiv+3,w
  3412  03EF  042A               	iorwf	??___fldiv+2,w
  3413  03F0  0429               	iorwf	??___fldiv+1,w
  3414  03F1  0428               	iorwf	??___fldiv,w
  3415  03F2  1903               	skipnz
  3416  03F3  2BF5               	goto	u1941
  3417  03F4  2BF6               	goto	u1940
  3418  03F5                     u1941:
  3419  03F5  2BF9               	goto	l573
  3420  03F6                     u1940:
  3421  03F6                     l1802:
  3422  03F6  01B9               	clrf	___fldiv@aexp
  3423  03F7  0AB9               	incf	___fldiv@aexp,f
  3424  03F8  2BFE               	goto	l1806
  3425  03F9                     l573:
  3426  03F9  1C24               	btfss	___fldiv@b,0
  3427  03FA  2BFC               	goto	u1951
  3428  03FB  2BFD               	goto	u1950
  3429  03FC                     u1951:
  3430  03FC  2BFE               	goto	l1806
  3431  03FD                     u1950:
  3432  03FD  2BF6               	goto	l1802
  3433  03FE                     l1806:
  3434  03FE  0839               	movf	___fldiv@aexp,w
  3435  03FF  1903               	btfsc	3,2
  3436  0400  2C02               	goto	u1961
  3437  0401  2C03               	goto	u1960
  3438  0402                     u1961:
  3439  0402  2C34               	goto	l1816
  3440  0403                     u1960:
  3441  0403                     l1808:
  3442  0403  3001               	movlw	1
  3443  0404  07A4               	addwf	___fldiv@b,f
  3444  0405  3000               	movlw	0
  3445  0406  1803               	skipnc
  3446  0407  3001               	movlw	1
  3447  0408  07A5               	addwf	___fldiv@b+1,f
  3448  0409  3000               	movlw	0
  3449  040A  1803               	skipnc
  3450  040B  3001               	movlw	1
  3451  040C  07A6               	addwf	___fldiv@b+2,f
  3452  040D  3000               	movlw	0
  3453  040E  1803               	skipnc
  3454  040F  3001               	movlw	1
  3455  0410  07A7               	addwf	___fldiv@b+3,f
  3456  0411                     l1810:
  3457  0411  1C27               	btfss	___fldiv@b+3,0
  3458  0412  2C14               	goto	u1971
  3459  0413  2C15               	goto	u1970
  3460  0414                     u1971:
  3461  0414  2C34               	goto	l1816
  3462  0415                     u1970:
  3463  0415                     l1812:
  3464  0415  0824               	movf	___fldiv@b,w
  3465  0416  00A8               	movwf	??___fldiv
  3466  0417  0825               	movf	___fldiv@b+1,w
  3467  0418  00A9               	movwf	??___fldiv+1
  3468  0419  0826               	movf	___fldiv@b+2,w
  3469  041A  00AA               	movwf	??___fldiv+2
  3470  041B  0827               	movf	___fldiv@b+3,w
  3471  041C  00AB               	movwf	??___fldiv+3
  3472  041D  3001               	movlw	1
  3473  041E  00AC               	movwf	??___fldiv+4
  3474  041F                     u1985:
  3475  041F  0D2B               	rlf	??___fldiv+3,w
  3476  0420  0CAB               	rrf	??___fldiv+3,f
  3477  0421  0CAA               	rrf	??___fldiv+2,f
  3478  0422  0CA9               	rrf	??___fldiv+1,f
  3479  0423  0CA8               	rrf	??___fldiv,f
  3480  0424                     u1980:
  3481  0424  0BAC               	decfsz	??___fldiv+4,f
  3482  0425  2C1F               	goto	u1985
  3483  0426  082B               	movf	??___fldiv+3,w
  3484  0427  00A7               	movwf	___fldiv@b+3
  3485  0428  082A               	movf	??___fldiv+2,w
  3486  0429  00A6               	movwf	___fldiv@b+2
  3487  042A  0829               	movf	??___fldiv+1,w
  3488  042B  00A5               	movwf	___fldiv@b+1
  3489  042C  0828               	movf	??___fldiv,w
  3490  042D  00A4               	movwf	___fldiv@b
  3491  042E                     l1814:
  3492  042E  3001               	movlw	1
  3493  042F  07B2               	addwf	___fldiv@new_exp,f
  3494  0430  1803               	skipnc
  3495  0431  0AB3               	incf	___fldiv@new_exp+1,f
  3496  0432  3000               	movlw	0
  3497  0433  07B3               	addwf	___fldiv@new_exp+1,f
  3498  0434                     l1816:
  3499  0434  0833               	movf	___fldiv@new_exp+1,w
  3500  0435  3A80               	xorlw	128
  3501  0436  00FF               	movwf	btemp+1
  3502  0437  3080               	movlw	128
  3503  0438  027F               	subwf	btemp+1,w
  3504  0439  1D03               	skipz
  3505  043A  2C3D               	goto	u1995
  3506  043B  30FF               	movlw	255
  3507  043C  0232               	subwf	___fldiv@new_exp,w
  3508  043D                     u1995:
  3509  043D  1C03               	skipc
  3510  043E  2C40               	goto	u1991
  3511  043F  2C41               	goto	u1990
  3512  0440                     u1991:
  3513  0440  2C4F               	goto	l1820
  3514  0441                     u1990:
  3515  0441                     l1818:
  3516  0441  30FF               	movlw	255
  3517  0442  1283               	bcf	3,5	;RP0=0, select bank0
  3518  0443  1303               	bcf	3,6	;RP1=0, select bank0
  3519  0444  00B2               	movwf	___fldiv@new_exp
  3520  0445  3000               	movlw	0
  3521  0446  00B3               	movwf	___fldiv@new_exp+1
  3522  0447  3000               	movlw	0
  3523  0448  00A7               	movwf	___fldiv@b+3
  3524  0449  3000               	movlw	0
  3525  044A  00A6               	movwf	___fldiv@b+2
  3526  044B  3000               	movlw	0
  3527  044C  00A5               	movwf	___fldiv@b+1
  3528  044D  3000               	movlw	0
  3529  044E  00A4               	movwf	___fldiv@b
  3530  044F                     l1820:
  3531  044F  1283               	bcf	3,5	;RP0=0, select bank0
  3532  0450  1303               	bcf	3,6	;RP1=0, select bank0
  3533  0451  0833               	movf	___fldiv@new_exp+1,w
  3534  0452  3A80               	xorlw	128
  3535  0453  00FF               	movwf	btemp+1
  3536  0454  3080               	movlw	128
  3537  0455  027F               	subwf	btemp+1,w
  3538  0456  1D03               	skipz
  3539  0457  2C5A               	goto	u2005
  3540  0458  3001               	movlw	1
  3541  0459  0232               	subwf	___fldiv@new_exp,w
  3542  045A                     u2005:
  3543  045A  1803               	skipnc
  3544  045B  2C5D               	goto	u2001
  3545  045C  2C5E               	goto	u2000
  3546  045D                     u2001:
  3547  045D  2C6B               	goto	l579
  3548  045E                     u2000:
  3549  045E                     l1822:
  3550  045E  1283               	bcf	3,5	;RP0=0, select bank0
  3551  045F  1303               	bcf	3,6	;RP1=0, select bank0
  3552  0460  01B2               	clrf	___fldiv@new_exp
  3553  0461  01B3               	clrf	___fldiv@new_exp+1
  3554  0462                     l1824:
  3555  0462  3000               	movlw	0
  3556  0463  00A7               	movwf	___fldiv@b+3
  3557  0464  3000               	movlw	0
  3558  0465  00A6               	movwf	___fldiv@b+2
  3559  0466  3000               	movlw	0
  3560  0467  00A5               	movwf	___fldiv@b+1
  3561  0468  3000               	movlw	0
  3562  0469  00A4               	movwf	___fldiv@b
  3563  046A                     l1826:
  3564  046A  01B1               	clrf	___fldiv@sign
  3565  046B                     l579:
  3566  046B  1283               	bcf	3,5	;RP0=0, select bank0
  3567  046C  1303               	bcf	3,6	;RP1=0, select bank0
  3568  046D  0832               	movf	___fldiv@new_exp,w
  3569  046E  00A8               	movwf	??___fldiv
  3570  046F  0828               	movf	??___fldiv,w
  3571  0470  00B8               	movwf	___fldiv@bexp
  3572  0471                     l1828:
  3573  0471  1C38               	btfss	___fldiv@bexp,0
  3574  0472  2C74               	goto	u2011
  3575  0473  2C75               	goto	u2010
  3576  0474                     u2011:
  3577  0474  2C77               	goto	l1832
  3578  0475                     u2010:
  3579  0475                     l1830:
  3580  0475  17A6               	bsf	___fldiv@b+2,7
  3581  0476  2C7B               	goto	l581
  3582  0477                     l1832:
  3583  0477  307F               	movlw	127
  3584  0478  00A8               	movwf	??___fldiv
  3585  0479  0828               	movf	??___fldiv,w
  3586  047A  05A6               	andwf	___fldiv@b+2,f
  3587  047B                     l581:
  3588  047B  0838               	movf	___fldiv@bexp,w
  3589  047C  00A8               	movwf	??___fldiv
  3590  047D  1003               	clrc
  3591  047E  0C28               	rrf	??___fldiv,w
  3592  047F  00A9               	movwf	??___fldiv+1
  3593  0480  0829               	movf	??___fldiv+1,w
  3594  0481  00A7               	movwf	___fldiv@b+3
  3595  0482  0831               	movf	___fldiv@sign,w
  3596  0483  00A8               	movwf	??___fldiv
  3597  0484  0828               	movf	??___fldiv,w
  3598  0485  04A7               	iorwf	___fldiv@b+3,f
  3599  0486  2B1F               	goto	l1740
  3600  0487                     l559:
  3601  0487  0008               	return
  3602  0488                     __end_of___fldiv:
  3603                           
  3604                           	psect	text8
  3605  0005                     __ptext8:	
  3606 ;; *************** function _ReadADC *****************
  3607 ;; Defined at:
  3608 ;;		line 24 in file "adc_pic16.c"
  3609 ;; Parameters:    Size  Location     Type
  3610 ;;  ch              1    wreg     unsigned char 
  3611 ;; Auto vars:     Size  Location     Type
  3612 ;;  ch              1    3[COMMON] unsigned char 
  3613 ;; Return value:  Size  Location     Type
  3614 ;;                  2    0[COMMON] unsigned int 
  3615 ;; Registers used:
  3616 ;;		wreg, status,2, status,0
  3617 ;; Tracked objects:
  3618 ;;		On entry : 0/0
  3619 ;;		On exit  : 0/0
  3620 ;;		Unchanged: 0/0
  3621 ;; Data sizes:     COMMON   BANK0   BANK1   BANK3   BANK2
  3622 ;;      Params:         2       0       0       0       0
  3623 ;;      Locals:         1       0       0       0       0
  3624 ;;      Temps:          1       0       0       0       0
  3625 ;;      Totals:         4       0       0       0       0
  3626 ;;Total ram usage:        4 bytes
  3627 ;; Hardware stack levels used: 1
  3628 ;; This function calls:
  3629 ;;		Nothing
  3630 ;; This function is called by:
  3631 ;;		_LM35ReadTemp
  3632 ;; This function uses a non-reentrant model
  3633 ;;
  3634                           
  3635                           
  3636                           ;psect for function _ReadADC
  3637  0005                     _ReadADC:
  3638                           
  3639                           ;incstack = 0
  3640                           ; Regs used in _ReadADC: [wreg+status,2+status,0]
  3641                           ;ReadADC@ch stored from wreg
  3642  0005  00F3               	movwf	ReadADC@ch
  3643  0006                     l1572:
  3644                           
  3645                           ;adc_pic16.c: 24: uint16_t ReadADC(uint8_t ch);adc_pic16.c: 25: {;adc_pic16.c: 26:   if(
      +                          ch>7) return 0;
  3646  0006  3008               	movlw	8
  3647  0007  0273               	subwf	ReadADC@ch,w
  3648  0008  1C03               	skipc
  3649  0009  280B               	goto	u1451
  3650  000A  280C               	goto	u1450
  3651  000B                     u1451:
  3652  000B  280F               	goto	l1578
  3653  000C                     u1450:
  3654  000C                     l1574:
  3655  000C  01F0               	clrf	?_ReadADC
  3656  000D  01F1               	clrf	?_ReadADC+1
  3657  000E  282D               	goto	l88
  3658  000F                     l1578:
  3659                           
  3660                           ;adc_pic16.c: 28:   ADCON0bits.CHS=ch;
  3661  000F  0873               	movf	ReadADC@ch,w
  3662  0010  00F2               	movwf	??_ReadADC
  3663  0011  0DF2               	rlf	??_ReadADC,f
  3664  0012  0DF2               	rlf	??_ReadADC,f
  3665  0013  0DF2               	rlf	??_ReadADC,f
  3666  0014  1283               	bcf	3,5	;RP0=0, select bank0
  3667  0015  1303               	bcf	3,6	;RP1=0, select bank0
  3668  0016  081F               	movf	31,w	;volatile
  3669  0017  0672               	xorwf	??_ReadADC,w
  3670  0018  39C7               	andlw	-57
  3671  0019  0672               	xorwf	??_ReadADC,w
  3672  001A  009F               	movwf	31	;volatile
  3673  001B                     l1580:
  3674                           
  3675                           ;adc_pic16.c: 31:   _delay((unsigned long)((100)*(20000000/4000000.0)));
  3676  001B  30A6               	movlw	166
  3677  001C  00F2               	movwf	??_ReadADC
  3678  001D                     u2797:
  3679  001D  0BF2               	decfsz	??_ReadADC,f
  3680  001E  281D               	goto	u2797
  3681  001F  0000               	nop
  3682  0020                     l1582:
  3683                           
  3684                           ;adc_pic16.c: 34:   ADCON0bits.GO=1;
  3685  0020  1283               	bcf	3,5	;RP0=0, select bank0
  3686  0021  1303               	bcf	3,6	;RP1=0, select bank0
  3687  0022  151F               	bsf	31,2	;volatile
  3688  0023                     l89:	
  3689                           ;adc_pic16.c: 37:   while(ADCON0bits.GO);
  3690                           
  3691  0023  191F               	btfsc	31,2	;volatile
  3692  0024  2826               	goto	u1461
  3693  0025  2827               	goto	u1460
  3694  0026                     u1461:
  3695  0026  2823               	goto	l89
  3696  0027                     u1460:
  3697  0027                     l1584:
  3698                           
  3699                           ;adc_pic16.c: 39:   return ((ADRESH<<8)|ADRESL);
  3700  0027  081E               	movf	30,w	;volatile
  3701  0028  00F1               	movwf	?_ReadADC+1
  3702  0029  1683               	bsf	3,5	;RP0=1, select bank1
  3703  002A  1303               	bcf	3,6	;RP1=0, select bank1
  3704  002B  081E               	movf	30,w	;volatile
  3705  002C  00F0               	movwf	?_ReadADC
  3706  002D                     l88:
  3707  002D  0008               	return
  3708  002E                     __end_of_ReadADC:
  3709                           
  3710                           	psect	text9
  3711  0F93                     __ptext9:	
  3712 ;; *************** function _LCDWriteString *****************
  3713 ;; Defined at:
  3714 ;;		line 251 in file "lcd_hd44780_pic16.c"
  3715 ;; Parameters:    Size  Location     Type
  3716 ;;  msg             1    wreg     PTR const unsigned char 
  3717 ;;		 -> STR_2(4), STR_1(12), 
  3718 ;; Auto vars:     Size  Location     Type
  3719 ;;  msg             1    1[BANK0 ] PTR const unsigned char 
  3720 ;;		 -> STR_2(4), STR_1(12), 
  3721 ;;  cc              1    0[BANK0 ] char 
  3722 ;; Return value:  Size  Location     Type
  3723 ;;                  1    wreg      void 
  3724 ;; Registers used:
  3725 ;;		wreg, fsr0l, fsr0h, status,2, status,0, pclath, cstack
  3726 ;; Tracked objects:
  3727 ;;		On entry : 0/0
  3728 ;;		On exit  : 0/0
  3729 ;;		Unchanged: 0/0
  3730 ;; Data sizes:     COMMON   BANK0   BANK1   BANK3   BANK2
  3731 ;;      Params:         0       0       0       0       0
  3732 ;;      Locals:         0       2       0       0       0
  3733 ;;      Temps:          1       0       0       0       0
  3734 ;;      Totals:         1       2       0       0       0
  3735 ;;Total ram usage:        3 bytes
  3736 ;; Hardware stack levels used: 1
  3737 ;; Hardware stack levels required when called: 2
  3738 ;; This function calls:
  3739 ;;		_LCDByte
  3740 ;; This function is called by:
  3741 ;;		_main
  3742 ;; This function uses a non-reentrant model
  3743 ;;
  3744                           
  3745                           
  3746                           ;psect for function _LCDWriteString
  3747  0F93                     _LCDWriteString:
  3748                           
  3749                           ;incstack = 0
  3750                           ; Regs used in _LCDWriteString: [wreg-fsr0h+status,2+status,0+pclath+cstack]
  3751                           ;LCDWriteString@msg stored from wreg
  3752  0F93  1283               	bcf	3,5	;RP0=0, select bank0
  3753  0F94  1303               	bcf	3,6	;RP1=0, select bank0
  3754  0F95  00A1               	movwf	LCDWriteString@msg
  3755  0F96                     l2072:
  3756                           
  3757                           ;lcd_hd44780_pic16.c: 251: void LCDWriteString(const char *msg);lcd_hd44780_pic16.c: 252
      +                          : {;lcd_hd44780_pic16.c: 281:  while(*msg!='\0')
  3758  0F96  2FF3               	goto	l2094
  3759  0F97                     l2074:
  3760                           
  3761                           ;lcd_hd44780_pic16.c: 282:  {;lcd_hd44780_pic16.c: 284:  if(*msg=='%')
  3762  0F97  0821               	movf	LCDWriteString@msg,w
  3763  0F98  0084               	movwf	4
  3764  0F99  120A  158A  2000  120A  158A  	fcall	stringdir
  3765  0F9E  3A25               	xorlw	37
  3766  0F9F  1D03               	skipz
  3767  0FA0  2FA2               	goto	u2541
  3768  0FA1  2FA3               	goto	u2540
  3769  0FA2                     u2541:
  3770  0FA2  2FDF               	goto	l2090
  3771  0FA3                     u2540:
  3772  0FA3                     l2076:
  3773                           
  3774                           ;lcd_hd44780_pic16.c: 285:  {;lcd_hd44780_pic16.c: 286:   msg++;
  3775  0FA3  3001               	movlw	1
  3776  0FA4  00FC               	movwf	??_LCDWriteString
  3777  0FA5  087C               	movf	??_LCDWriteString,w
  3778  0FA6  07A1               	addwf	LCDWriteString@msg,f
  3779  0FA7                     l2078:
  3780                           
  3781                           ;lcd_hd44780_pic16.c: 287:   int8_t cc=*msg-'0';
  3782  0FA7  0821               	movf	LCDWriteString@msg,w
  3783  0FA8  0084               	movwf	4
  3784  0FA9  120A  158A  2000  120A  158A  	fcall	stringdir
  3785  0FAE  3ED0               	addlw	-48
  3786  0FAF  00FC               	movwf	??_LCDWriteString
  3787  0FB0  087C               	movf	??_LCDWriteString,w
  3788  0FB1  00A0               	movwf	LCDWriteString@cc
  3789  0FB2                     l2080:
  3790                           
  3791                           ;lcd_hd44780_pic16.c: 289:   if(cc>=0 && cc<=7)
  3792  0FB2  1BA0               	btfsc	LCDWriteString@cc,7
  3793  0FB3  2FB5               	goto	u2551
  3794  0FB4  2FB6               	goto	u2550
  3795  0FB5                     u2551:
  3796  0FB5  2FC6               	goto	l2086
  3797  0FB6                     u2550:
  3798  0FB6                     l2082:
  3799  0FB6  0820               	movf	LCDWriteString@cc,w
  3800  0FB7  3A80               	xorlw	128
  3801  0FB8  3E78               	addlw	-136
  3802  0FB9  1803               	skipnc
  3803  0FBA  2FBC               	goto	u2561
  3804  0FBB  2FBD               	goto	u2560
  3805  0FBC                     u2561:
  3806  0FBC  2FC6               	goto	l2086
  3807  0FBD                     u2560:
  3808  0FBD                     l2084:
  3809                           
  3810                           ;lcd_hd44780_pic16.c: 290:   {;lcd_hd44780_pic16.c: 291:    (LCDByte(cc,1));
  3811  0FBD  01F5               	clrf	LCDByte@isdata
  3812  0FBE  0AF5               	incf	LCDByte@isdata,f
  3813  0FBF  0820               	movf	LCDWriteString@cc,w
  3814  0FC0  120A  158A  2566  120A  158A  	fcall	_LCDByte
  3815                           
  3816                           ;lcd_hd44780_pic16.c: 292:   }
  3817  0FC5  2FED               	goto	l2092
  3818  0FC6                     l2086:
  3819                           
  3820                           ;lcd_hd44780_pic16.c: 294:   {;lcd_hd44780_pic16.c: 295:    (LCDByte('%',1));
  3821  0FC6  01F5               	clrf	LCDByte@isdata
  3822  0FC7  0AF5               	incf	LCDByte@isdata,f
  3823  0FC8  3025               	movlw	37
  3824  0FC9  120A  158A  2566  120A  158A  	fcall	_LCDByte
  3825  0FCE                     l2088:
  3826                           
  3827                           ;lcd_hd44780_pic16.c: 296:    (LCDByte(*msg,1));
  3828  0FCE  01F5               	clrf	LCDByte@isdata
  3829  0FCF  0AF5               	incf	LCDByte@isdata,f
  3830  0FD0  1283               	bcf	3,5	;RP0=0, select bank0
  3831  0FD1  1303               	bcf	3,6	;RP1=0, select bank0
  3832  0FD2  0821               	movf	LCDWriteString@msg,w
  3833  0FD3  0084               	movwf	4
  3834  0FD4  120A  158A  2000  120A  158A  	fcall	stringdir
  3835  0FD9  120A  158A  2566  120A  158A  	fcall	_LCDByte
  3836  0FDE  2FED               	goto	l2092
  3837  0FDF                     l2090:
  3838                           
  3839                           ;lcd_hd44780_pic16.c: 300:  {;lcd_hd44780_pic16.c: 301:   (LCDByte(*msg,1));
  3840  0FDF  01F5               	clrf	LCDByte@isdata
  3841  0FE0  0AF5               	incf	LCDByte@isdata,f
  3842  0FE1  0821               	movf	LCDWriteString@msg,w
  3843  0FE2  0084               	movwf	4
  3844  0FE3  120A  158A  2000  120A  158A  	fcall	stringdir
  3845  0FE8  120A  158A  2566  120A  158A  	fcall	_LCDByte
  3846  0FED                     l2092:
  3847                           
  3848                           ;lcd_hd44780_pic16.c: 303:  msg++;
  3849  0FED  3001               	movlw	1
  3850  0FEE  00FC               	movwf	??_LCDWriteString
  3851  0FEF  087C               	movf	??_LCDWriteString,w
  3852  0FF0  1283               	bcf	3,5	;RP0=0, select bank0
  3853  0FF1  1303               	bcf	3,6	;RP1=0, select bank0
  3854  0FF2  07A1               	addwf	LCDWriteString@msg,f
  3855  0FF3                     l2094:
  3856                           
  3857                           ;lcd_hd44780_pic16.c: 281:  while(*msg!='\0')
  3858  0FF3  0821               	movf	LCDWriteString@msg,w
  3859  0FF4  0084               	movwf	4
  3860  0FF5  120A  158A  2000  120A  158A  	fcall	stringdir
  3861  0FFA  3A00               	xorlw	0
  3862  0FFB  1D03               	skipz
  3863  0FFC  2FFE               	goto	u2571
  3864  0FFD  2FFF               	goto	u2570
  3865  0FFE                     u2571:
  3866  0FFE  2F97               	goto	l2074
  3867  0FFF                     u2570:
  3868  0FFF                     l45:
  3869  0FFF  0008               	return
  3870  1000                     __end_of_LCDWriteString:
  3871                           
  3872                           	psect	text10
  3873  0147                     __ptext10:	
  3874 ;; *************** function _LCDWriteInt *****************
  3875 ;; Defined at:
  3876 ;;		line 307 in file "lcd_hd44780_pic16.c"
  3877 ;; Parameters:    Size  Location     Type
  3878 ;;  val             2    0[BANK0 ] int 
  3879 ;;  field_length    1    2[BANK0 ] char 
  3880 ;; Auto vars:     Size  Location     Type
  3881 ;;  str             5    6[BANK0 ] unsigned char [5]
  3882 ;;  i               2   13[BANK0 ] int 
  3883 ;;  j               2   11[BANK0 ] int 
  3884 ;; Return value:  Size  Location     Type
  3885 ;;                  1    wreg      void 
  3886 ;; Registers used:
  3887 ;;		wreg, fsr0l, fsr0h, status,2, status,0, btemp+1, pclath, cstack
  3888 ;; Tracked objects:
  3889 ;;		On entry : 0/0
  3890 ;;		On exit  : 0/0
  3891 ;;		Unchanged: 0/0
  3892 ;; Data sizes:     COMMON   BANK0   BANK1   BANK3   BANK2
  3893 ;;      Params:         0       3       0       0       0
  3894 ;;      Locals:         0       9       0       0       0
  3895 ;;      Temps:          0       3       0       0       0
  3896 ;;      Totals:         0      15       0       0       0
  3897 ;;Total ram usage:       15 bytes
  3898 ;; Hardware stack levels used: 1
  3899 ;; Hardware stack levels required when called: 2
  3900 ;; This function calls:
  3901 ;;		_LCDByte
  3902 ;;		___awdiv
  3903 ;;		___awmod
  3904 ;; This function is called by:
  3905 ;;		_main
  3906 ;; This function uses a non-reentrant model
  3907 ;;
  3908                           
  3909                           
  3910                           ;psect for function _LCDWriteInt
  3911  0147                     _LCDWriteInt:
  3912  0147                     l2096:	
  3913                           ;incstack = 0
  3914                           ; Regs used in _LCDWriteInt: [wreg-fsr0h+status,2+status,0+btemp+1+pclath+cstack]
  3915                           
  3916                           
  3917                           ;lcd_hd44780_pic16.c: 307: void LCDWriteInt(int val,int8_t field_length);lcd_hd44780_pic
      +                          16.c: 308: {;lcd_hd44780_pic16.c: 320:  char str[5]={0,0,0,0,0};
  3918  0147  3026               	movlw	LCDWriteInt@str& (0+255)
  3919  0148  0084               	movwf	4
  3920  0149  3005               	movlw	5
  3921  014A  00FF               	movwf	btemp+1
  3922  014B                     u2580:
  3923  014B  1383               	bcf	3,7	;select IRP bank0
  3924  014C  0180               	clrf	0
  3925  014D  0A84               	incf	4,f
  3926  014E  0BFF               	decfsz	btemp+1,f
  3927  014F  294B               	goto	u2580
  3928  0150                     l2098:
  3929                           
  3930                           ;lcd_hd44780_pic16.c: 321:  int i=4,j=0;
  3931  0150  3004               	movlw	4
  3932  0151  1283               	bcf	3,5	;RP0=0, select bank0
  3933  0152  1303               	bcf	3,6	;RP1=0, select bank0
  3934  0153  00AD               	movwf	LCDWriteInt@i
  3935  0154  3000               	movlw	0
  3936  0155  00AE               	movwf	LCDWriteInt@i+1
  3937  0156                     l2100:
  3938  0156  01AB               	clrf	LCDWriteInt@j
  3939  0157  01AC               	clrf	LCDWriteInt@j+1
  3940  0158                     l2102:
  3941                           
  3942                           ;lcd_hd44780_pic16.c: 324:         if(val<0)
  3943  0158  1FA1               	btfss	LCDWriteInt@val+1,7
  3944  0159  295B               	goto	u2591
  3945  015A  295C               	goto	u2590
  3946  015B                     u2591:
  3947  015B  299C               	goto	l2114
  3948  015C                     u2590:
  3949  015C                     l2104:
  3950                           
  3951                           ;lcd_hd44780_pic16.c: 325:         {;lcd_hd44780_pic16.c: 326:             (LCDByte('-',
      +                          1));
  3952  015C  01F5               	clrf	LCDByte@isdata
  3953  015D  0AF5               	incf	LCDByte@isdata,f
  3954  015E  302D               	movlw	45
  3955  015F  120A  158A  2566  120A  118A  	fcall	_LCDByte
  3956  0164                     l2106:
  3957                           
  3958                           ;lcd_hd44780_pic16.c: 327:             val=val*-1;
  3959  0164  1283               	bcf	3,5	;RP0=0, select bank0
  3960  0165  1303               	bcf	3,6	;RP1=0, select bank0
  3961  0166  09A0               	comf	LCDWriteInt@val,f
  3962  0167  09A1               	comf	LCDWriteInt@val+1,f
  3963  0168  0AA0               	incf	LCDWriteInt@val,f
  3964  0169  1903               	skipnz
  3965  016A  0AA1               	incf	LCDWriteInt@val+1,f
  3966  016B  299C               	goto	l2114
  3967  016C                     l2108:
  3968                           
  3969                           ;lcd_hd44780_pic16.c: 331:  {;lcd_hd44780_pic16.c: 332:             str[i]=val%10;
  3970  016C  300A               	movlw	10
  3971  016D  00F0               	movwf	___awmod@divisor
  3972  016E  3000               	movlw	0
  3973  016F  00F1               	movwf	___awmod@divisor+1
  3974  0170  0821               	movf	LCDWriteInt@val+1,w
  3975  0171  00F3               	movwf	___awmod@dividend+1
  3976  0172  0820               	movf	LCDWriteInt@val,w
  3977  0173  00F2               	movwf	___awmod@dividend
  3978  0174  120A  158A  260A  120A  118A  	fcall	___awmod
  3979  0179  0870               	movf	?___awmod,w
  3980  017A  1283               	bcf	3,5	;RP0=0, select bank0
  3981  017B  1303               	bcf	3,6	;RP1=0, select bank0
  3982  017C  00A3               	movwf	??_LCDWriteInt
  3983  017D  082D               	movf	LCDWriteInt@i,w
  3984  017E  3E26               	addlw	(low (LCDWriteInt@str| 0))& (0+255)
  3985  017F  0084               	movwf	4
  3986  0180  0823               	movf	??_LCDWriteInt,w
  3987  0181  1383               	bcf	3,7	;select IRP bank0
  3988  0182  0080               	movwf	0
  3989  0183                     l2110:
  3990                           
  3991                           ;lcd_hd44780_pic16.c: 333:             val=val/10;
  3992  0183  300A               	movlw	10
  3993  0184  00F0               	movwf	___awdiv@divisor
  3994  0185  3000               	movlw	0
  3995  0186  00F1               	movwf	___awdiv@divisor+1
  3996  0187  0821               	movf	LCDWriteInt@val+1,w
  3997  0188  00F3               	movwf	___awdiv@dividend+1
  3998  0189  0820               	movf	LCDWriteInt@val,w
  3999  018A  00F2               	movwf	___awdiv@dividend
  4000  018B  120A  158A  272C  120A  118A  	fcall	___awdiv
  4001  0190  0871               	movf	?___awdiv+1,w
  4002  0191  1283               	bcf	3,5	;RP0=0, select bank0
  4003  0192  1303               	bcf	3,6	;RP1=0, select bank0
  4004  0193  00A1               	movwf	LCDWriteInt@val+1
  4005  0194  0870               	movf	?___awdiv,w
  4006  0195  00A0               	movwf	LCDWriteInt@val
  4007  0196                     l2112:
  4008                           
  4009                           ;lcd_hd44780_pic16.c: 334:             i--;
  4010  0196  30FF               	movlw	255
  4011  0197  07AD               	addwf	LCDWriteInt@i,f
  4012  0198  1803               	skipnc
  4013  0199  0AAE               	incf	LCDWriteInt@i+1,f
  4014  019A  30FF               	movlw	255
  4015  019B  07AE               	addwf	LCDWriteInt@i+1,f
  4016  019C                     l2114:
  4017                           
  4018                           ;lcd_hd44780_pic16.c: 330:  while(val)
  4019  019C  0820               	movf	LCDWriteInt@val,w
  4020  019D  0421               	iorwf	LCDWriteInt@val+1,w
  4021  019E  1D03               	btfss	3,2
  4022  019F  29A1               	goto	u2601
  4023  01A0  29A2               	goto	u2600
  4024  01A1                     u2601:
  4025  01A1  296C               	goto	l2108
  4026  01A2                     u2600:
  4027  01A2                     l2116:
  4028                           
  4029                           ;lcd_hd44780_pic16.c: 336:  if(field_length==-1)
  4030  01A2  0A22               	incf	LCDWriteInt@field_length,w
  4031  01A3  1D03               	btfss	3,2
  4032  01A4  29A6               	goto	u2611
  4033  01A5  29A7               	goto	u2610
  4034  01A6                     u2611:
  4035  01A6  29B8               	goto	l2124
  4036  01A7                     u2610:
  4037  01A7  29AE               	goto	l2122
  4038  01A8                     l2120:
  4039  01A8  3001               	movlw	1
  4040  01A9  07AB               	addwf	LCDWriteInt@j,f
  4041  01AA  1803               	skipnc
  4042  01AB  0AAC               	incf	LCDWriteInt@j+1,f
  4043  01AC  3000               	movlw	0
  4044  01AD  07AC               	addwf	LCDWriteInt@j+1,f
  4045  01AE                     l2122:
  4046  01AE  082B               	movf	LCDWriteInt@j,w
  4047  01AF  3E26               	addlw	(low (LCDWriteInt@str| 0))& (0+255)
  4048  01B0  0084               	movwf	4
  4049  01B1  1383               	bcf	3,7	;select IRP bank0
  4050  01B2  0800               	movf	0,w
  4051  01B3  1903               	btfsc	3,2
  4052  01B4  29B6               	goto	u2621
  4053  01B5  29B7               	goto	u2620
  4054  01B6                     u2621:
  4055  01B6  29A8               	goto	l2120
  4056  01B7                     u2620:
  4057  01B7  29C6               	goto	l58
  4058  01B8                     l2124:
  4059                           
  4060                           ;lcd_hd44780_pic16.c: 339:   j=5-field_length;
  4061  01B8  0822               	movf	LCDWriteInt@field_length,w
  4062  01B9  00A3               	movwf	??_LCDWriteInt
  4063  01BA  01A4               	clrf	??_LCDWriteInt+1
  4064  01BB  1BA3               	btfsc	??_LCDWriteInt,7
  4065  01BC  03A4               	decf	??_LCDWriteInt+1,f
  4066  01BD  3005               	movlw	5
  4067  01BE  00A5               	movwf	??_LCDWriteInt+2
  4068  01BF  0823               	movf	??_LCDWriteInt,w
  4069  01C0  0225               	subwf	??_LCDWriteInt+2,w
  4070  01C1  00AB               	movwf	LCDWriteInt@j
  4071  01C2  0924               	comf	??_LCDWriteInt+1,w
  4072  01C3  1803               	skipnc
  4073  01C4  3E01               	addlw	1
  4074  01C5  00AC               	movwf	LCDWriteInt@j+1
  4075  01C6                     l58:
  4076                           
  4077                           ;lcd_hd44780_pic16.c: 342:  for(i=j;i<5;i++)
  4078  01C6  082C               	movf	LCDWriteInt@j+1,w
  4079  01C7  00AE               	movwf	LCDWriteInt@i+1
  4080  01C8  082B               	movf	LCDWriteInt@j,w
  4081  01C9  00AD               	movwf	LCDWriteInt@i
  4082  01CA                     l2126:
  4083  01CA  082E               	movf	LCDWriteInt@i+1,w
  4084  01CB  3A80               	xorlw	128
  4085  01CC  00FF               	movwf	btemp+1
  4086  01CD  3080               	movlw	128
  4087  01CE  027F               	subwf	btemp+1,w
  4088  01CF  1D03               	skipz
  4089  01D0  29D3               	goto	u2635
  4090  01D1  3005               	movlw	5
  4091  01D2  022D               	subwf	LCDWriteInt@i,w
  4092  01D3                     u2635:
  4093  01D3  1C03               	skipc
  4094  01D4  29D6               	goto	u2631
  4095  01D5  29D7               	goto	u2630
  4096  01D6                     u2631:
  4097  01D6  29D8               	goto	l2130
  4098  01D7                     u2630:
  4099  01D7  29F0               	goto	l61
  4100  01D8                     l2130:
  4101                           
  4102                           ;lcd_hd44780_pic16.c: 343:  {;lcd_hd44780_pic16.c: 344:  (LCDByte(48+str[i],1));
  4103  01D8  01F5               	clrf	LCDByte@isdata
  4104  01D9  0AF5               	incf	LCDByte@isdata,f
  4105  01DA  1283               	bcf	3,5	;RP0=0, select bank0
  4106  01DB  1303               	bcf	3,6	;RP1=0, select bank0
  4107  01DC  082D               	movf	LCDWriteInt@i,w
  4108  01DD  3E26               	addlw	(low (LCDWriteInt@str| 0))& (0+255)
  4109  01DE  0084               	movwf	4
  4110  01DF  1383               	bcf	3,7	;select IRP bank0
  4111  01E0  0800               	movf	0,w
  4112  01E1  3E30               	addlw	48
  4113  01E2  120A  158A  2566  120A  118A  	fcall	_LCDByte
  4114  01E7                     l2132:
  4115                           
  4116                           ;lcd_hd44780_pic16.c: 345:  }
  4117  01E7  3001               	movlw	1
  4118  01E8  1283               	bcf	3,5	;RP0=0, select bank0
  4119  01E9  1303               	bcf	3,6	;RP1=0, select bank0
  4120  01EA  07AD               	addwf	LCDWriteInt@i,f
  4121  01EB  1803               	skipnc
  4122  01EC  0AAE               	incf	LCDWriteInt@i+1,f
  4123  01ED  3000               	movlw	0
  4124  01EE  07AE               	addwf	LCDWriteInt@i+1,f
  4125  01EF  29CA               	goto	l2126
  4126  01F0                     l61:
  4127  01F0  0008               	return
  4128  01F1                     __end_of_LCDWriteInt:
  4129                           
  4130                           	psect	text11
  4131  0E0A                     __ptext11:	
  4132 ;; *************** function ___awmod *****************
  4133 ;; Defined at:
  4134 ;;		line 5 in file "C:\Program Files\Microchip\xc8\v2.32\pic\sources\c90\common\awmod.c"
  4135 ;; Parameters:    Size  Location     Type
  4136 ;;  divisor         2    0[COMMON] int 
  4137 ;;  dividend        2    2[COMMON] int 
  4138 ;; Auto vars:     Size  Location     Type
  4139 ;;  sign            1    6[COMMON] unsigned char 
  4140 ;;  counter         1    5[COMMON] unsigned char 
  4141 ;; Return value:  Size  Location     Type
  4142 ;;                  2    0[COMMON] int 
  4143 ;; Registers used:
  4144 ;;		wreg, status,2, status,0
  4145 ;; Tracked objects:
  4146 ;;		On entry : 0/0
  4147 ;;		On exit  : 0/0
  4148 ;;		Unchanged: 0/0
  4149 ;; Data sizes:     COMMON   BANK0   BANK1   BANK3   BANK2
  4150 ;;      Params:         4       0       0       0       0
  4151 ;;      Locals:         2       0       0       0       0
  4152 ;;      Temps:          1       0       0       0       0
  4153 ;;      Totals:         7       0       0       0       0
  4154 ;;Total ram usage:        7 bytes
  4155 ;; Hardware stack levels used: 1
  4156 ;; This function calls:
  4157 ;;		Nothing
  4158 ;; This function is called by:
  4159 ;;		_LCDWriteInt
  4160 ;; This function uses a non-reentrant model
  4161 ;;
  4162                           
  4163                           
  4164                           ;psect for function ___awmod
  4165  0E0A                     ___awmod:
  4166  0E0A                     l1632:	
  4167                           ;incstack = 0
  4168                           ; Regs used in ___awmod: [wreg+status,2+status,0]
  4169                           
  4170  0E0A  01F6               	clrf	___awmod@sign
  4171  0E0B                     l1634:
  4172  0E0B  1FF3               	btfss	___awmod@dividend+1,7
  4173  0E0C  2E0E               	goto	u1571
  4174  0E0D  2E0F               	goto	u1570
  4175  0E0E                     u1571:
  4176  0E0E  2E16               	goto	l1640
  4177  0E0F                     u1570:
  4178  0E0F                     l1636:
  4179  0E0F  09F2               	comf	___awmod@dividend,f
  4180  0E10  09F3               	comf	___awmod@dividend+1,f
  4181  0E11  0AF2               	incf	___awmod@dividend,f
  4182  0E12  1903               	skipnz
  4183  0E13  0AF3               	incf	___awmod@dividend+1,f
  4184  0E14                     l1638:
  4185  0E14  01F6               	clrf	___awmod@sign
  4186  0E15  0AF6               	incf	___awmod@sign,f
  4187  0E16                     l1640:
  4188  0E16  1FF1               	btfss	___awmod@divisor+1,7
  4189  0E17  2E19               	goto	u1581
  4190  0E18  2E1A               	goto	u1580
  4191  0E19                     u1581:
  4192  0E19  2E1F               	goto	l1644
  4193  0E1A                     u1580:
  4194  0E1A                     l1642:
  4195  0E1A  09F0               	comf	___awmod@divisor,f
  4196  0E1B  09F1               	comf	___awmod@divisor+1,f
  4197  0E1C  0AF0               	incf	___awmod@divisor,f
  4198  0E1D  1903               	skipnz
  4199  0E1E  0AF1               	incf	___awmod@divisor+1,f
  4200  0E1F                     l1644:
  4201  0E1F  0870               	movf	___awmod@divisor,w
  4202  0E20  0471               	iorwf	___awmod@divisor+1,w
  4203  0E21  1903               	btfsc	3,2
  4204  0E22  2E24               	goto	u1591
  4205  0E23  2E25               	goto	u1590
  4206  0E24                     u1591:
  4207  0E24  2E54               	goto	l1662
  4208  0E25                     u1590:
  4209  0E25                     l1646:
  4210  0E25  01F5               	clrf	___awmod@counter
  4211  0E26  0AF5               	incf	___awmod@counter,f
  4212  0E27  2E33               	goto	l1652
  4213  0E28                     l1648:
  4214  0E28  3001               	movlw	1
  4215  0E29                     u1605:
  4216  0E29  1003               	clrc
  4217  0E2A  0DF0               	rlf	___awmod@divisor,f
  4218  0E2B  0DF1               	rlf	___awmod@divisor+1,f
  4219  0E2C  3EFF               	addlw	-1
  4220  0E2D  1D03               	skipz
  4221  0E2E  2E29               	goto	u1605
  4222  0E2F                     l1650:
  4223  0E2F  3001               	movlw	1
  4224  0E30  00F4               	movwf	??___awmod
  4225  0E31  0874               	movf	??___awmod,w
  4226  0E32  07F5               	addwf	___awmod@counter,f
  4227  0E33                     l1652:
  4228  0E33  1FF1               	btfss	___awmod@divisor+1,7
  4229  0E34  2E36               	goto	u1611
  4230  0E35  2E37               	goto	u1610
  4231  0E36                     u1611:
  4232  0E36  2E28               	goto	l1648
  4233  0E37                     u1610:
  4234  0E37                     l1654:
  4235  0E37  0871               	movf	___awmod@divisor+1,w
  4236  0E38  0273               	subwf	___awmod@dividend+1,w
  4237  0E39  1D03               	skipz
  4238  0E3A  2E3D               	goto	u1625
  4239  0E3B  0870               	movf	___awmod@divisor,w
  4240  0E3C  0272               	subwf	___awmod@dividend,w
  4241  0E3D                     u1625:
  4242  0E3D  1C03               	skipc
  4243  0E3E  2E40               	goto	u1621
  4244  0E3F  2E41               	goto	u1620
  4245  0E40                     u1621:
  4246  0E40  2E47               	goto	l1658
  4247  0E41                     u1620:
  4248  0E41                     l1656:
  4249  0E41  0870               	movf	___awmod@divisor,w
  4250  0E42  02F2               	subwf	___awmod@dividend,f
  4251  0E43  0871               	movf	___awmod@divisor+1,w
  4252  0E44  1C03               	skipc
  4253  0E45  03F3               	decf	___awmod@dividend+1,f
  4254  0E46  02F3               	subwf	___awmod@dividend+1,f
  4255  0E47                     l1658:
  4256  0E47  3001               	movlw	1
  4257  0E48                     u1635:
  4258  0E48  1003               	clrc
  4259  0E49  0CF1               	rrf	___awmod@divisor+1,f
  4260  0E4A  0CF0               	rrf	___awmod@divisor,f
  4261  0E4B  3EFF               	addlw	-1
  4262  0E4C  1D03               	skipz
  4263  0E4D  2E48               	goto	u1635
  4264  0E4E                     l1660:
  4265  0E4E  3001               	movlw	1
  4266  0E4F  02F5               	subwf	___awmod@counter,f
  4267  0E50  1D03               	btfss	3,2
  4268  0E51  2E53               	goto	u1641
  4269  0E52  2E54               	goto	u1640
  4270  0E53                     u1641:
  4271  0E53  2E37               	goto	l1654
  4272  0E54                     u1640:
  4273  0E54                     l1662:
  4274  0E54  0876               	movf	___awmod@sign,w
  4275  0E55  1903               	btfsc	3,2
  4276  0E56  2E58               	goto	u1651
  4277  0E57  2E59               	goto	u1650
  4278  0E58                     u1651:
  4279  0E58  2E5E               	goto	l1666
  4280  0E59                     u1650:
  4281  0E59                     l1664:
  4282  0E59  09F2               	comf	___awmod@dividend,f
  4283  0E5A  09F3               	comf	___awmod@dividend+1,f
  4284  0E5B  0AF2               	incf	___awmod@dividend,f
  4285  0E5C  1903               	skipnz
  4286  0E5D  0AF3               	incf	___awmod@dividend+1,f
  4287  0E5E                     l1666:
  4288  0E5E  0873               	movf	___awmod@dividend+1,w
  4289  0E5F  00F1               	movwf	?___awmod+1
  4290  0E60  0872               	movf	___awmod@dividend,w
  4291  0E61  00F0               	movwf	?___awmod
  4292  0E62                     l374:
  4293  0E62  0008               	return
  4294  0E63                     __end_of___awmod:
  4295                           
  4296                           	psect	text12
  4297  0F2C                     __ptext12:	
  4298 ;; *************** function ___awdiv *****************
  4299 ;; Defined at:
  4300 ;;		line 5 in file "C:\Program Files\Microchip\xc8\v2.32\pic\sources\c90\common\awdiv.c"
  4301 ;; Parameters:    Size  Location     Type
  4302 ;;  divisor         2    0[COMMON] int 
  4303 ;;  dividend        2    2[COMMON] int 
  4304 ;; Auto vars:     Size  Location     Type
  4305 ;;  quotient        2    7[COMMON] int 
  4306 ;;  sign            1    6[COMMON] unsigned char 
  4307 ;;  counter         1    5[COMMON] unsigned char 
  4308 ;; Return value:  Size  Location     Type
  4309 ;;                  2    0[COMMON] int 
  4310 ;; Registers used:
  4311 ;;		wreg, status,2, status,0
  4312 ;; Tracked objects:
  4313 ;;		On entry : 0/0
  4314 ;;		On exit  : 0/0
  4315 ;;		Unchanged: 0/0
  4316 ;; Data sizes:     COMMON   BANK0   BANK1   BANK3   BANK2
  4317 ;;      Params:         4       0       0       0       0
  4318 ;;      Locals:         4       0       0       0       0
  4319 ;;      Temps:          1       0       0       0       0
  4320 ;;      Totals:         9       0       0       0       0
  4321 ;;Total ram usage:        9 bytes
  4322 ;; Hardware stack levels used: 1
  4323 ;; This function calls:
  4324 ;;		Nothing
  4325 ;; This function is called by:
  4326 ;;		_LCDWriteInt
  4327 ;; This function uses a non-reentrant model
  4328 ;;
  4329                           
  4330                           
  4331                           ;psect for function ___awdiv
  4332  0F2C                     ___awdiv:
  4333  0F2C                     l1588:	
  4334                           ;incstack = 0
  4335                           ; Regs used in ___awdiv: [wreg+status,2+status,0]
  4336                           
  4337  0F2C  01F6               	clrf	___awdiv@sign
  4338  0F2D                     l1590:
  4339  0F2D  1FF1               	btfss	___awdiv@divisor+1,7
  4340  0F2E  2F30               	goto	u1471
  4341  0F2F  2F31               	goto	u1470
  4342  0F30                     u1471:
  4343  0F30  2F38               	goto	l1596
  4344  0F31                     u1470:
  4345  0F31                     l1592:
  4346  0F31  09F0               	comf	___awdiv@divisor,f
  4347  0F32  09F1               	comf	___awdiv@divisor+1,f
  4348  0F33  0AF0               	incf	___awdiv@divisor,f
  4349  0F34  1903               	skipnz
  4350  0F35  0AF1               	incf	___awdiv@divisor+1,f
  4351  0F36                     l1594:
  4352  0F36  01F6               	clrf	___awdiv@sign
  4353  0F37  0AF6               	incf	___awdiv@sign,f
  4354  0F38                     l1596:
  4355  0F38  1FF3               	btfss	___awdiv@dividend+1,7
  4356  0F39  2F3B               	goto	u1481
  4357  0F3A  2F3C               	goto	u1480
  4358  0F3B                     u1481:
  4359  0F3B  2F45               	goto	l1602
  4360  0F3C                     u1480:
  4361  0F3C                     l1598:
  4362  0F3C  09F2               	comf	___awdiv@dividend,f
  4363  0F3D  09F3               	comf	___awdiv@dividend+1,f
  4364  0F3E  0AF2               	incf	___awdiv@dividend,f
  4365  0F3F  1903               	skipnz
  4366  0F40  0AF3               	incf	___awdiv@dividend+1,f
  4367  0F41                     l1600:
  4368  0F41  3001               	movlw	1
  4369  0F42  00F4               	movwf	??___awdiv
  4370  0F43  0874               	movf	??___awdiv,w
  4371  0F44  06F6               	xorwf	___awdiv@sign,f
  4372  0F45                     l1602:
  4373  0F45  01F7               	clrf	___awdiv@quotient
  4374  0F46  01F8               	clrf	___awdiv@quotient+1
  4375  0F47                     l1604:
  4376  0F47  0870               	movf	___awdiv@divisor,w
  4377  0F48  0471               	iorwf	___awdiv@divisor+1,w
  4378  0F49  1903               	btfsc	3,2
  4379  0F4A  2F4C               	goto	u1491
  4380  0F4B  2F4D               	goto	u1490
  4381  0F4C                     u1491:
  4382  0F4C  2F84               	goto	l1624
  4383  0F4D                     u1490:
  4384  0F4D                     l1606:
  4385  0F4D  01F5               	clrf	___awdiv@counter
  4386  0F4E  0AF5               	incf	___awdiv@counter,f
  4387  0F4F  2F5B               	goto	l1612
  4388  0F50                     l1608:
  4389  0F50  3001               	movlw	1
  4390  0F51                     u1505:
  4391  0F51  1003               	clrc
  4392  0F52  0DF0               	rlf	___awdiv@divisor,f
  4393  0F53  0DF1               	rlf	___awdiv@divisor+1,f
  4394  0F54  3EFF               	addlw	-1
  4395  0F55  1D03               	skipz
  4396  0F56  2F51               	goto	u1505
  4397  0F57                     l1610:
  4398  0F57  3001               	movlw	1
  4399  0F58  00F4               	movwf	??___awdiv
  4400  0F59  0874               	movf	??___awdiv,w
  4401  0F5A  07F5               	addwf	___awdiv@counter,f
  4402  0F5B                     l1612:
  4403  0F5B  1FF1               	btfss	___awdiv@divisor+1,7
  4404  0F5C  2F5E               	goto	u1511
  4405  0F5D  2F5F               	goto	u1510
  4406  0F5E                     u1511:
  4407  0F5E  2F50               	goto	l1608
  4408  0F5F                     u1510:
  4409  0F5F                     l1614:
  4410  0F5F  3001               	movlw	1
  4411  0F60                     u1525:
  4412  0F60  1003               	clrc
  4413  0F61  0DF7               	rlf	___awdiv@quotient,f
  4414  0F62  0DF8               	rlf	___awdiv@quotient+1,f
  4415  0F63  3EFF               	addlw	-1
  4416  0F64  1D03               	skipz
  4417  0F65  2F60               	goto	u1525
  4418  0F66  0871               	movf	___awdiv@divisor+1,w
  4419  0F67  0273               	subwf	___awdiv@dividend+1,w
  4420  0F68  1D03               	skipz
  4421  0F69  2F6C               	goto	u1535
  4422  0F6A  0870               	movf	___awdiv@divisor,w
  4423  0F6B  0272               	subwf	___awdiv@dividend,w
  4424  0F6C                     u1535:
  4425  0F6C  1C03               	skipc
  4426  0F6D  2F6F               	goto	u1531
  4427  0F6E  2F70               	goto	u1530
  4428  0F6F                     u1531:
  4429  0F6F  2F77               	goto	l1620
  4430  0F70                     u1530:
  4431  0F70                     l1616:
  4432  0F70  0870               	movf	___awdiv@divisor,w
  4433  0F71  02F2               	subwf	___awdiv@dividend,f
  4434  0F72  0871               	movf	___awdiv@divisor+1,w
  4435  0F73  1C03               	skipc
  4436  0F74  03F3               	decf	___awdiv@dividend+1,f
  4437  0F75  02F3               	subwf	___awdiv@dividend+1,f
  4438  0F76                     l1618:
  4439  0F76  1477               	bsf	___awdiv@quotient,0
  4440  0F77                     l1620:
  4441  0F77  3001               	movlw	1
  4442  0F78                     u1545:
  4443  0F78  1003               	clrc
  4444  0F79  0CF1               	rrf	___awdiv@divisor+1,f
  4445  0F7A  0CF0               	rrf	___awdiv@divisor,f
  4446  0F7B  3EFF               	addlw	-1
  4447  0F7C  1D03               	skipz
  4448  0F7D  2F78               	goto	u1545
  4449  0F7E                     l1622:
  4450  0F7E  3001               	movlw	1
  4451  0F7F  02F5               	subwf	___awdiv@counter,f
  4452  0F80  1D03               	btfss	3,2
  4453  0F81  2F83               	goto	u1551
  4454  0F82  2F84               	goto	u1550
  4455  0F83                     u1551:
  4456  0F83  2F5F               	goto	l1614
  4457  0F84                     u1550:
  4458  0F84                     l1624:
  4459  0F84  0876               	movf	___awdiv@sign,w
  4460  0F85  1903               	btfsc	3,2
  4461  0F86  2F88               	goto	u1561
  4462  0F87  2F89               	goto	u1560
  4463  0F88                     u1561:
  4464  0F88  2F8E               	goto	l1628
  4465  0F89                     u1560:
  4466  0F89                     l1626:
  4467  0F89  09F7               	comf	___awdiv@quotient,f
  4468  0F8A  09F8               	comf	___awdiv@quotient+1,f
  4469  0F8B  0AF7               	incf	___awdiv@quotient,f
  4470  0F8C  1903               	skipnz
  4471  0F8D  0AF8               	incf	___awdiv@quotient+1,f
  4472  0F8E                     l1628:
  4473  0F8E  0878               	movf	___awdiv@quotient+1,w
  4474  0F8F  00F1               	movwf	?___awdiv+1
  4475  0F90  0877               	movf	___awdiv@quotient,w
  4476  0F91  00F0               	movwf	?___awdiv
  4477  0F92                     l361:
  4478  0F92  0008               	return
  4479  0F93                     __end_of___awdiv:
  4480                           
  4481                           	psect	text13
  4482  0E63                     __ptext13:	
  4483 ;; *************** function _LCDInit *****************
  4484 ;; Defined at:
  4485 ;;		line 193 in file "lcd_hd44780_pic16.c"
  4486 ;; Parameters:    Size  Location     Type
  4487 ;;  style           1    wreg     unsigned char 
  4488 ;; Auto vars:     Size  Location     Type
  4489 ;;  style           1    0[BANK0 ] unsigned char 
  4490 ;;  __i             1    1[BANK0 ] unsigned char 
  4491 ;; Return value:  Size  Location     Type
  4492 ;;                  1    wreg      void 
  4493 ;; Registers used:
  4494 ;;		wreg, fsr0l, fsr0h, status,2, status,0, pclath, cstack
  4495 ;; Tracked objects:
  4496 ;;		On entry : 0/0
  4497 ;;		On exit  : 0/0
  4498 ;;		Unchanged: 0/0
  4499 ;; Data sizes:     COMMON   BANK0   BANK1   BANK3   BANK2
  4500 ;;      Params:         0       0       0       0       0
  4501 ;;      Locals:         0       2       0       0       0
  4502 ;;      Temps:          2       0       0       0       0
  4503 ;;      Totals:         2       2       0       0       0
  4504 ;;Total ram usage:        4 bytes
  4505 ;; Hardware stack levels used: 1
  4506 ;; Hardware stack levels required when called: 2
  4507 ;; This function calls:
  4508 ;;		_LCDBusyLoop
  4509 ;;		_LCDByte
  4510 ;; This function is called by:
  4511 ;;		_main
  4512 ;; This function uses a non-reentrant model
  4513 ;;
  4514                           
  4515                           
  4516                           ;psect for function _LCDInit
  4517  0E63                     _LCDInit:
  4518                           
  4519                           ;incstack = 0
  4520                           ; Regs used in _LCDInit: [wreg-fsr0h+status,2+status,0+pclath+cstack]
  4521                           ;LCDInit@style stored from wreg
  4522  0E63  1283               	bcf	3,5	;RP0=0, select bank0
  4523  0E64  1303               	bcf	3,6	;RP1=0, select bank0
  4524  0E65  00A0               	movwf	LCDInit@style
  4525  0E66                     l2022:
  4526                           
  4527                           ;lcd_hd44780_pic16.c: 193: void LCDInit(uint8_t style);lcd_hd44780_pic16.c: 194: {;lcd_h
      +                          d44780_pic16.c: 209:  _delay((unsigned long)((30)*(20000000/4000.0)));
  4528  0E66  30C3               	movlw	195
  4529  0E67  00FD               	movwf	??_LCDInit+1
  4530  0E68  30CD               	movlw	205
  4531  0E69  00FC               	movwf	??_LCDInit
  4532  0E6A                     u2807:
  4533  0E6A  0BFC               	decfsz	??_LCDInit,f
  4534  0E6B  2E6A               	goto	u2807
  4535  0E6C  0BFD               	decfsz	??_LCDInit+1,f
  4536  0E6D  2E6A               	goto	u2807
  4537  0E6E                     l2024:
  4538                           
  4539                           ;lcd_hd44780_pic16.c: 212:  TRISD&=(~(0x0F<<0));
  4540  0E6E  30F0               	movlw	240
  4541  0E6F  00FC               	movwf	??_LCDInit
  4542  0E70  087C               	movf	??_LCDInit,w
  4543  0E71  1683               	bsf	3,5	;RP0=1, select bank1
  4544  0E72  1303               	bcf	3,6	;RP1=0, select bank1
  4545  0E73  0588               	andwf	8,f	;volatile
  4546  0E74                     l2026:
  4547                           
  4548                           ;lcd_hd44780_pic16.c: 214:         TRISDbits.TRISD4=0;
  4549  0E74  1208               	bcf	8,4	;volatile
  4550  0E75                     l2028:
  4551                           
  4552                           ;lcd_hd44780_pic16.c: 215:         TRISBbits.TRISB1=0;
  4553  0E75  1086               	bcf	6,1	;volatile
  4554  0E76                     l2030:
  4555                           
  4556                           ;lcd_hd44780_pic16.c: 216:         TRISBbits.TRISB2=0;
  4557  0E76  1106               	bcf	6,2	;volatile
  4558  0E77                     l2032:
  4559                           
  4560                           ;lcd_hd44780_pic16.c: 218:  PORTD&=(~(0x0F<<0));
  4561  0E77  30F0               	movlw	240
  4562  0E78  00FC               	movwf	??_LCDInit
  4563  0E79  087C               	movf	??_LCDInit,w
  4564  0E7A  1283               	bcf	3,5	;RP0=0, select bank0
  4565  0E7B  1303               	bcf	3,6	;RP1=0, select bank0
  4566  0E7C  0588               	andwf	8,f	;volatile
  4567  0E7D                     l2034:
  4568                           
  4569                           ;lcd_hd44780_pic16.c: 220:         (RD4=0);
  4570  0E7D  1208               	bcf	8,4	;volatile
  4571  0E7E                     l2036:
  4572                           
  4573                           ;lcd_hd44780_pic16.c: 221:  (RB2=0);
  4574  0E7E  1106               	bcf	6,2	;volatile
  4575  0E7F                     l2038:
  4576                           
  4577                           ;lcd_hd44780_pic16.c: 222:  (RB1=0);
  4578  0E7F  1086               	bcf	6,1	;volatile
  4579  0E80                     l2040:
  4580                           
  4581                           ;lcd_hd44780_pic16.c: 225:  _delay((unsigned long)((0.5)*(20000000/4000000.0)));
  4582  0E80  2E81               	nop2	;2 cycle nop
  4583  0E81                     l2042:
  4584                           
  4585                           ;lcd_hd44780_pic16.c: 227:  (RD4=1);
  4586  0E81  1283               	bcf	3,5	;RP0=0, select bank0
  4587  0E82  1303               	bcf	3,6	;RP1=0, select bank0
  4588  0E83  1608               	bsf	8,4	;volatile
  4589  0E84                     l2044:
  4590                           
  4591                           ;lcd_hd44780_pic16.c: 228:  PORTD|=((0b00000010)<<0);
  4592  0E84  1488               	bsf	8,1	;volatile
  4593  0E85                     l2046:
  4594                           
  4595                           ;lcd_hd44780_pic16.c: 229:  _delay((unsigned long)((1)*(20000000/4000000.0)));
  4596  0E85  2E86               	nop2	;2 cycle nop
  4597  0E86  2E87               	nop2	;2 cycle nop
  4598  0E87  0000               	nop
  4599  0E88                     l2048:
  4600                           
  4601                           ;lcd_hd44780_pic16.c: 230:  (RD4=0);
  4602  0E88  1283               	bcf	3,5	;RP0=0, select bank0
  4603  0E89  1303               	bcf	3,6	;RP1=0, select bank0
  4604  0E8A  1208               	bcf	8,4	;volatile
  4605  0E8B                     l2050:
  4606                           
  4607                           ;lcd_hd44780_pic16.c: 231:  _delay((unsigned long)((1)*(20000000/4000000.0)));
  4608  0E8B  2E8C               	nop2	;2 cycle nop
  4609  0E8C  2E8D               	nop2	;2 cycle nop
  4610  0E8D  0000               	nop
  4611  0E8E                     l2052:
  4612                           
  4613                           ;lcd_hd44780_pic16.c: 234:  LCDBusyLoop();
  4614  0E8E  120A  158A  25B3  120A  158A  	fcall	_LCDBusyLoop
  4615  0E93                     l2054:
  4616                           
  4617                           ;lcd_hd44780_pic16.c: 239:  (LCDByte(0b00101000,0));
  4618  0E93  01F5               	clrf	LCDByte@isdata
  4619  0E94  3028               	movlw	40
  4620  0E95  120A  158A  2566  120A  158A  	fcall	_LCDByte
  4621  0E9A                     l2056:
  4622                           
  4623                           ;lcd_hd44780_pic16.c: 240:         (LCDByte(0b00001100|style,0));
  4624  0E9A  01F5               	clrf	LCDByte@isdata
  4625  0E9B  1283               	bcf	3,5	;RP0=0, select bank0
  4626  0E9C  1303               	bcf	3,6	;RP1=0, select bank0
  4627  0E9D  0820               	movf	LCDInit@style,w
  4628  0E9E  380C               	iorlw	12
  4629  0E9F  120A  158A  2566  120A  158A  	fcall	_LCDByte
  4630  0EA4                     l2058:
  4631                           
  4632                           ;lcd_hd44780_pic16.c: 243:         (LCDByte(0b01000000,0));
  4633  0EA4  01F5               	clrf	LCDByte@isdata
  4634  0EA5  3040               	movlw	64
  4635  0EA6  120A  158A  2566  120A  158A  	fcall	_LCDByte
  4636  0EAB                     l2060:
  4637                           
  4638                           ;lcd_hd44780_pic16.c: 245:  uint8_t __i;;lcd_hd44780_pic16.c: 246:  for(__i=0;__i<sizeof
      +                          (__cgram);__i++)
  4639  0EAB  1283               	bcf	3,5	;RP0=0, select bank0
  4640  0EAC  1303               	bcf	3,6	;RP1=0, select bank0
  4641  0EAD  01A1               	clrf	LCDInit@__i
  4642  0EAE                     l2066:
  4643                           
  4644                           ;lcd_hd44780_pic16.c: 247:   (LCDByte(__cgram[__i],1));
  4645  0EAE  01F5               	clrf	LCDByte@isdata
  4646  0EAF  0AF5               	incf	LCDByte@isdata,f
  4647  0EB0  0821               	movf	LCDInit@__i,w
  4648  0EB1  3EA0               	addlw	(low (___cgram| 0))& (0+255)
  4649  0EB2  0084               	movwf	4
  4650  0EB3  1383               	bcf	3,7	;select IRP bank1
  4651  0EB4  0800               	movf	0,w
  4652  0EB5  120A  158A  2566  120A  158A  	fcall	_LCDByte
  4653  0EBA                     l2068:
  4654  0EBA  3001               	movlw	1
  4655  0EBB  00FC               	movwf	??_LCDInit
  4656  0EBC  087C               	movf	??_LCDInit,w
  4657  0EBD  1283               	bcf	3,5	;RP0=0, select bank0
  4658  0EBE  1303               	bcf	3,6	;RP1=0, select bank0
  4659  0EBF  07A1               	addwf	LCDInit@__i,f
  4660  0EC0                     l2070:
  4661  0EC0  3040               	movlw	64
  4662  0EC1  0221               	subwf	LCDInit@__i,w
  4663  0EC2  1C03               	skipc
  4664  0EC3  2EC5               	goto	u2531
  4665  0EC4  2EC6               	goto	u2530
  4666  0EC5                     u2531:
  4667  0EC5  2EAE               	goto	l2066
  4668  0EC6                     u2530:
  4669  0EC6                     l35:
  4670  0EC6  0008               	return
  4671  0EC7                     __end_of_LCDInit:
  4672                           
  4673                           	psect	text14
  4674  0CAD                     __ptext14:	
  4675 ;; *************** function _LCDGotoXY *****************
  4676 ;; Defined at:
  4677 ;;		line 352 in file "lcd_hd44780_pic16.c"
  4678 ;; Parameters:    Size  Location     Type
  4679 ;;  x               1    wreg     unsigned char 
  4680 ;;  y               1   12[COMMON] unsigned char 
  4681 ;; Auto vars:     Size  Location     Type
  4682 ;;  x               1   13[COMMON] unsigned char 
  4683 ;; Return value:  Size  Location     Type
  4684 ;;                  1    wreg      void 
  4685 ;; Registers used:
  4686 ;;		wreg, fsr0l, fsr0h, status,2, status,0, pclath, cstack
  4687 ;; Tracked objects:
  4688 ;;		On entry : 0/0
  4689 ;;		On exit  : 0/0
  4690 ;;		Unchanged: 0/0
  4691 ;; Data sizes:     COMMON   BANK0   BANK1   BANK3   BANK2
  4692 ;;      Params:         1       0       0       0       0
  4693 ;;      Locals:         1       0       0       0       0
  4694 ;;      Temps:          0       2       0       0       0
  4695 ;;      Totals:         2       2       0       0       0
  4696 ;;Total ram usage:        4 bytes
  4697 ;; Hardware stack levels used: 1
  4698 ;; Hardware stack levels required when called: 2
  4699 ;; This function calls:
  4700 ;;		_LCDByte
  4701 ;; This function is called by:
  4702 ;;		_main
  4703 ;; This function uses a non-reentrant model
  4704 ;;
  4705                           
  4706                           
  4707                           ;psect for function _LCDGotoXY
  4708  0CAD                     _LCDGotoXY:
  4709                           
  4710                           ;incstack = 0
  4711                           ; Regs used in _LCDGotoXY: [wreg-fsr0h+status,2+status,0+pclath+cstack]
  4712                           ;LCDGotoXY@x stored from wreg
  4713  0CAD  00FD               	movwf	LCDGotoXY@x
  4714  0CAE                     l2136:
  4715                           
  4716                           ;lcd_hd44780_pic16.c: 352: void LCDGotoXY(uint8_t x,uint8_t y);lcd_hd44780_pic16.c: 353:
      +                           {;lcd_hd44780_pic16.c: 354:   if(x>=20) return;
  4717  0CAE  3014               	movlw	20
  4718  0CAF  027D               	subwf	LCDGotoXY@x,w
  4719  0CB0  1C03               	skipc
  4720  0CB1  2CB3               	goto	u2641
  4721  0CB2  2CB4               	goto	u2640
  4722  0CB3                     u2641:
  4723  0CB3  2CC1               	goto	l2146
  4724  0CB4                     u2640:
  4725  0CB4  2CE1               	goto	l65
  4726  0CB5                     l69:	
  4727                           ;lcd_hd44780_pic16.c: 362:   case 1:
  4728                           
  4729                           
  4730                           ;lcd_hd44780_pic16.c: 363:    x|=0b01000000;
  4731  0CB5  177D               	bsf	LCDGotoXY@x,6
  4732                           
  4733                           ;lcd_hd44780_pic16.c: 364:    break;
  4734  0CB6  2CD9               	goto	l68
  4735  0CB7                     l2140:
  4736                           
  4737                           ;lcd_hd44780_pic16.c: 366:    x+=0x14;
  4738  0CB7  3014               	movlw	20
  4739  0CB8  00A0               	movwf	??_LCDGotoXY
  4740  0CB9  0820               	movf	??_LCDGotoXY,w
  4741  0CBA  07FD               	addwf	LCDGotoXY@x,f
  4742                           
  4743                           ;lcd_hd44780_pic16.c: 367:    break;
  4744  0CBB  2CD9               	goto	l68
  4745  0CBC                     l2142:
  4746                           
  4747                           ;lcd_hd44780_pic16.c: 369:    x+=0x54;
  4748  0CBC  3054               	movlw	84
  4749  0CBD  00A0               	movwf	??_LCDGotoXY
  4750  0CBE  0820               	movf	??_LCDGotoXY,w
  4751  0CBF  07FD               	addwf	LCDGotoXY@x,f
  4752                           
  4753                           ;lcd_hd44780_pic16.c: 370:    break;
  4754  0CC0  2CD9               	goto	l68
  4755  0CC1                     l2146:
  4756  0CC1  087C               	movf	LCDGotoXY@y,w
  4757  0CC2  1283               	bcf	3,5	;RP0=0, select bank0
  4758  0CC3  1303               	bcf	3,6	;RP1=0, select bank0
  4759  0CC4  00A0               	movwf	??_LCDGotoXY
  4760  0CC5  01A1               	clrf	??_LCDGotoXY+1
  4761                           
  4762                           ; Switch on 2 bytes has been partitioned into a top level switch of size 1, and 1 sub-sw
      +                          itches
  4763                           ; Switch size 1, requested type "simple"
  4764                           ; Number of cases is 1, Range of values is 0 to 0
  4765                           ; switch strategies available:
  4766                           ; Name         Instructions Cycles
  4767                           ; simple_byte            4     3 (average)
  4768                           ; direct_byte           11     8 (fixed)
  4769                           ; jumptable            260     6 (fixed)
  4770                           ;	Chosen strategy is simple_byte
  4771  0CC6  0821               	movf	??_LCDGotoXY+1,w
  4772  0CC7  3A00               	xorlw	0	; case 0
  4773  0CC8  1903               	skipnz
  4774  0CC9  2CCB               	goto	l2262
  4775  0CCA  2CD9               	goto	l68
  4776  0CCB                     l2262:
  4777                           
  4778                           ; Switch size 1, requested type "simple"
  4779                           ; Number of cases is 4, Range of values is 0 to 3
  4780                           ; switch strategies available:
  4781                           ; Name         Instructions Cycles
  4782                           ; simple_byte           13     7 (average)
  4783                           ; direct_byte           20     8 (fixed)
  4784                           ; jumptable            260     6 (fixed)
  4785                           ;	Chosen strategy is simple_byte
  4786  0CCB  0820               	movf	??_LCDGotoXY,w
  4787  0CCC  3A00               	xorlw	0	; case 0
  4788  0CCD  1903               	skipnz
  4789  0CCE  2CD9               	goto	l68
  4790  0CCF  3A01               	xorlw	1	; case 1
  4791  0CD0  1903               	skipnz
  4792  0CD1  2CB5               	goto	l69
  4793  0CD2  3A03               	xorlw	3	; case 2
  4794  0CD3  1903               	skipnz
  4795  0CD4  2CB7               	goto	l2140
  4796  0CD5  3A01               	xorlw	1	; case 3
  4797  0CD6  1903               	skipnz
  4798  0CD7  2CBC               	goto	l2142
  4799  0CD8  2CD9               	goto	l68
  4800  0CD9                     l68:
  4801                           
  4802                           ;lcd_hd44780_pic16.c: 393:  x|=0b10000000;
  4803  0CD9  17FD               	bsf	LCDGotoXY@x,7
  4804  0CDA                     l2148:
  4805                           
  4806                           ;lcd_hd44780_pic16.c: 394:    (LCDByte(x,0));
  4807  0CDA  01F5               	clrf	LCDByte@isdata
  4808  0CDB  087D               	movf	LCDGotoXY@x,w
  4809  0CDC  120A  158A  2566  120A  158A  	fcall	_LCDByte
  4810  0CE1                     l65:
  4811  0CE1  0008               	return
  4812  0CE2                     __end_of_LCDGotoXY:
  4813                           
  4814                           	psect	text15
  4815  0D66                     __ptext15:	
  4816 ;; *************** function _LCDByte *****************
  4817 ;; Defined at:
  4818 ;;		line 80 in file "lcd_hd44780_pic16.c"
  4819 ;; Parameters:    Size  Location     Type
  4820 ;;  c               1    wreg     unsigned char 
  4821 ;;  isdata          1    5[COMMON] unsigned char 
  4822 ;; Auto vars:     Size  Location     Type
  4823 ;;  c               1   10[COMMON] unsigned char 
  4824 ;;  temp            1   11[COMMON] unsigned char 
  4825 ;;  ln              1    9[COMMON] unsigned char 
  4826 ;;  hn              1    8[COMMON] unsigned char 
  4827 ;; Return value:  Size  Location     Type
  4828 ;;                  1    wreg      void 
  4829 ;; Registers used:
  4830 ;;		wreg, status,2, status,0, pclath, cstack
  4831 ;; Tracked objects:
  4832 ;;		On entry : 0/0
  4833 ;;		On exit  : 0/0
  4834 ;;		Unchanged: 0/0
  4835 ;; Data sizes:     COMMON   BANK0   BANK1   BANK3   BANK2
  4836 ;;      Params:         1       0       0       0       0
  4837 ;;      Locals:         4       0       0       0       0
  4838 ;;      Temps:          2       0       0       0       0
  4839 ;;      Totals:         7       0       0       0       0
  4840 ;;Total ram usage:        7 bytes
  4841 ;; Hardware stack levels used: 1
  4842 ;; Hardware stack levels required when called: 1
  4843 ;; This function calls:
  4844 ;;		_LCDBusyLoop
  4845 ;; This function is called by:
  4846 ;;		_LCDInit
  4847 ;;		_LCDWriteString
  4848 ;;		_LCDWriteInt
  4849 ;;		_LCDGotoXY
  4850 ;;		_main
  4851 ;; This function uses a non-reentrant model
  4852 ;;
  4853                           
  4854                           
  4855                           ;psect for function _LCDByte
  4856  0D66                     _LCDByte:
  4857                           
  4858                           ;incstack = 0
  4859                           ; Regs used in _LCDByte: [wreg+status,2+status,0+pclath+cstack]
  4860                           ;LCDByte@c stored from wreg
  4861  0D66  00FA               	movwf	LCDByte@c
  4862  0D67                     l1542:
  4863                           
  4864                           ;lcd_hd44780_pic16.c: 80: void LCDByte(uint8_t c,uint8_t isdata);lcd_hd44780_pic16.c: 81
      +                          : {;lcd_hd44780_pic16.c: 89: uint8_t hn,ln;;lcd_hd44780_pic16.c: 90: uint8_t temp;;lcd_h
      +                          d44780_pic16.c: 92: hn=c>>4;
  4865  0D67  087A               	movf	LCDByte@c,w
  4866  0D68  00F6               	movwf	??_LCDByte
  4867  0D69  3004               	movlw	4
  4868  0D6A                     u1435:
  4869  0D6A  1003               	clrc
  4870  0D6B  0CF6               	rrf	??_LCDByte,f
  4871  0D6C  3EFF               	addlw	-1
  4872  0D6D  1D03               	skipz
  4873  0D6E  2D6A               	goto	u1435
  4874  0D6F  0876               	movf	??_LCDByte,w
  4875  0D70  00F7               	movwf	??_LCDByte+1
  4876  0D71  0877               	movf	??_LCDByte+1,w
  4877  0D72  00F8               	movwf	LCDByte@hn
  4878  0D73                     l1544:
  4879                           
  4880                           ;lcd_hd44780_pic16.c: 93: ln=(c & 0x0F);
  4881  0D73  087A               	movf	LCDByte@c,w
  4882  0D74  390F               	andlw	15
  4883  0D75  00F6               	movwf	??_LCDByte
  4884  0D76  0876               	movf	??_LCDByte,w
  4885  0D77  00F9               	movwf	LCDByte@ln
  4886  0D78                     l1546:
  4887                           
  4888                           ;lcd_hd44780_pic16.c: 95: if(isdata==0)
  4889  0D78  0875               	movf	LCDByte@isdata,w
  4890  0D79  1D03               	btfss	3,2
  4891  0D7A  2D7C               	goto	u1441
  4892  0D7B  2D7D               	goto	u1440
  4893  0D7C                     u1441:
  4894  0D7C  2D81               	goto	l23
  4895  0D7D                     u1440:
  4896  0D7D                     l1548:
  4897                           
  4898                           ;lcd_hd44780_pic16.c: 96:  (RB1=0);
  4899  0D7D  1283               	bcf	3,5	;RP0=0, select bank0
  4900  0D7E  1303               	bcf	3,6	;RP1=0, select bank0
  4901  0D7F  1086               	bcf	6,1	;volatile
  4902  0D80  2D84               	goto	l24
  4903  0D81                     l23:	
  4904                           ;lcd_hd44780_pic16.c: 97: else
  4905                           
  4906                           
  4907                           ;lcd_hd44780_pic16.c: 98:  (RB1=1);
  4908  0D81  1283               	bcf	3,5	;RP0=0, select bank0
  4909  0D82  1303               	bcf	3,6	;RP1=0, select bank0
  4910  0D83  1486               	bsf	6,1	;volatile
  4911  0D84                     l24:
  4912                           
  4913                           ;lcd_hd44780_pic16.c: 100: _delay((unsigned long)((0.5)*(20000000/4000000.0)));
  4914  0D84  2D85               	nop2	;2 cycle nop
  4915                           
  4916                           ;lcd_hd44780_pic16.c: 102: (RD4=1);
  4917  0D85  1283               	bcf	3,5	;RP0=0, select bank0
  4918  0D86  1303               	bcf	3,6	;RP1=0, select bank0
  4919  0D87  1608               	bsf	8,4	;volatile
  4920  0D88                     l1550:
  4921                           
  4922                           ;lcd_hd44780_pic16.c: 106: temp=(PORTD & (~(0X0F<<0)))|((hn<<0));
  4923  0D88  0808               	movf	8,w	;volatile
  4924  0D89  39F0               	andlw	240
  4925  0D8A  0478               	iorwf	LCDByte@hn,w
  4926  0D8B  00F6               	movwf	??_LCDByte
  4927  0D8C  0876               	movf	??_LCDByte,w
  4928  0D8D  00FB               	movwf	LCDByte@temp
  4929  0D8E                     l1552:
  4930                           
  4931                           ;lcd_hd44780_pic16.c: 107: PORTD=temp;
  4932  0D8E  087B               	movf	LCDByte@temp,w
  4933  0D8F  0088               	movwf	8	;volatile
  4934  0D90                     l1554:
  4935                           
  4936                           ;lcd_hd44780_pic16.c: 109: _delay((unsigned long)((1)*(20000000/4000000.0)));
  4937  0D90  2D91               	nop2	;2 cycle nop
  4938  0D91  2D92               	nop2	;2 cycle nop
  4939  0D92  0000               	nop
  4940  0D93                     l1556:
  4941                           
  4942                           ;lcd_hd44780_pic16.c: 113: (RD4=0);
  4943  0D93  1283               	bcf	3,5	;RP0=0, select bank0
  4944  0D94  1303               	bcf	3,6	;RP1=0, select bank0
  4945  0D95  1208               	bcf	8,4	;volatile
  4946  0D96                     l1558:
  4947                           
  4948                           ;lcd_hd44780_pic16.c: 115: _delay((unsigned long)((1)*(20000000/4000000.0)));
  4949  0D96  2D97               	nop2	;2 cycle nop
  4950  0D97  2D98               	nop2	;2 cycle nop
  4951  0D98  0000               	nop
  4952  0D99                     l1560:
  4953                           
  4954                           ;lcd_hd44780_pic16.c: 118: (RD4=1);
  4955  0D99  1283               	bcf	3,5	;RP0=0, select bank0
  4956  0D9A  1303               	bcf	3,6	;RP1=0, select bank0
  4957  0D9B  1608               	bsf	8,4	;volatile
  4958  0D9C                     l1562:
  4959                           
  4960                           ;lcd_hd44780_pic16.c: 120: temp=(PORTD & (~(0X0F<<0)))|((ln<<0));
  4961  0D9C  0808               	movf	8,w	;volatile
  4962  0D9D  39F0               	andlw	240
  4963  0D9E  0479               	iorwf	LCDByte@ln,w
  4964  0D9F  00F6               	movwf	??_LCDByte
  4965  0DA0  0876               	movf	??_LCDByte,w
  4966  0DA1  00FB               	movwf	LCDByte@temp
  4967                           
  4968                           ;lcd_hd44780_pic16.c: 122: PORTD=temp;
  4969  0DA2  087B               	movf	LCDByte@temp,w
  4970  0DA3  0088               	movwf	8	;volatile
  4971  0DA4                     l1564:
  4972                           
  4973                           ;lcd_hd44780_pic16.c: 124: _delay((unsigned long)((1)*(20000000/4000000.0)));
  4974  0DA4  2DA5               	nop2	;2 cycle nop
  4975  0DA5  2DA6               	nop2	;2 cycle nop
  4976  0DA6  0000               	nop
  4977  0DA7                     l1566:
  4978                           
  4979                           ;lcd_hd44780_pic16.c: 128: (RD4=0);
  4980  0DA7  1283               	bcf	3,5	;RP0=0, select bank0
  4981  0DA8  1303               	bcf	3,6	;RP1=0, select bank0
  4982  0DA9  1208               	bcf	8,4	;volatile
  4983  0DAA                     l1568:
  4984                           
  4985                           ;lcd_hd44780_pic16.c: 130: _delay((unsigned long)((1)*(20000000/4000000.0)));
  4986  0DAA  2DAB               	nop2	;2 cycle nop
  4987  0DAB  2DAC               	nop2	;2 cycle nop
  4988  0DAC  0000               	nop
  4989  0DAD                     l1570:
  4990                           
  4991                           ;lcd_hd44780_pic16.c: 132: LCDBusyLoop();
  4992  0DAD  120A  158A  25B3  120A  158A  	fcall	_LCDBusyLoop
  4993  0DB2                     l25:
  4994  0DB2  0008               	return
  4995  0DB3                     __end_of_LCDByte:
  4996                           
  4997                           	psect	text16
  4998  0DB3                     __ptext16:	
  4999 ;; *************** function _LCDBusyLoop *****************
  5000 ;; Defined at:
  5001 ;;		line 135 in file "lcd_hd44780_pic16.c"
  5002 ;; Parameters:    Size  Location     Type
  5003 ;;		None
  5004 ;; Auto vars:     Size  Location     Type
  5005 ;;  status          1    4[COMMON] unsigned char 
  5006 ;;  temp            1    3[COMMON] unsigned char 
  5007 ;;  busy            1    2[COMMON] unsigned char 
  5008 ;; Return value:  Size  Location     Type
  5009 ;;                  1    wreg      void 
  5010 ;; Registers used:
  5011 ;;		wreg, status,2, status,0
  5012 ;; Tracked objects:
  5013 ;;		On entry : 0/0
  5014 ;;		On exit  : 0/0
  5015 ;;		Unchanged: 0/0
  5016 ;; Data sizes:     COMMON   BANK0   BANK1   BANK3   BANK2
  5017 ;;      Params:         0       0       0       0       0
  5018 ;;      Locals:         3       0       0       0       0
  5019 ;;      Temps:          2       0       0       0       0
  5020 ;;      Totals:         5       0       0       0       0
  5021 ;;Total ram usage:        5 bytes
  5022 ;; Hardware stack levels used: 1
  5023 ;; This function calls:
  5024 ;;		Nothing
  5025 ;; This function is called by:
  5026 ;;		_LCDByte
  5027 ;;		_LCDInit
  5028 ;; This function uses a non-reentrant model
  5029 ;;
  5030                           
  5031                           
  5032                           ;psect for function _LCDBusyLoop
  5033  0DB3                     _LCDBusyLoop:
  5034  0DB3                     l1482:	
  5035                           ;incstack = 0
  5036                           ; Regs used in _LCDBusyLoop: [wreg+status,2+status,0]
  5037                           
  5038  0DB3                     l1484:
  5039                           
  5040                           ;lcd_hd44780_pic16.c: 142:  TRISD|=(0x0f<<0);
  5041  0DB3  300F               	movlw	15
  5042  0DB4  00F0               	movwf	??_LCDBusyLoop
  5043  0DB5  0870               	movf	??_LCDBusyLoop,w
  5044  0DB6  1683               	bsf	3,5	;RP0=1, select bank1
  5045  0DB7  1303               	bcf	3,6	;RP1=0, select bank1
  5046  0DB8  0488               	iorwf	8,f	;volatile
  5047  0DB9                     l1486:
  5048                           
  5049                           ;lcd_hd44780_pic16.c: 145:  (RB2=1);
  5050  0DB9  1283               	bcf	3,5	;RP0=0, select bank0
  5051  0DBA  1303               	bcf	3,6	;RP1=0, select bank0
  5052  0DBB  1506               	bsf	6,2	;volatile
  5053  0DBC                     l1488:
  5054                           
  5055                           ;lcd_hd44780_pic16.c: 146:  (RB1=0);
  5056  0DBC  1086               	bcf	6,1	;volatile
  5057  0DBD                     l1490:
  5058                           
  5059                           ;lcd_hd44780_pic16.c: 150:  _delay((unsigned long)((0.5)*(20000000/4000000.0)));
  5060  0DBD  2DBE               	nop2	;2 cycle nop
  5061  0DBE                     l1492:
  5062                           
  5063                           ;lcd_hd44780_pic16.c: 154:  {;lcd_hd44780_pic16.c: 156:   (RD4=1);
  5064  0DBE  1283               	bcf	3,5	;RP0=0, select bank0
  5065  0DBF  1303               	bcf	3,6	;RP1=0, select bank0
  5066  0DC0  1608               	bsf	8,4	;volatile
  5067  0DC1                     l1494:
  5068                           
  5069                           ;lcd_hd44780_pic16.c: 159:   _delay((unsigned long)((0.5)*(20000000/4000000.0)));
  5070  0DC1  2DC2               	nop2	;2 cycle nop
  5071  0DC2                     l1496:
  5072                           
  5073                           ;lcd_hd44780_pic16.c: 161:   status=(PORTD>>0);
  5074  0DC2  1283               	bcf	3,5	;RP0=0, select bank0
  5075  0DC3  1303               	bcf	3,6	;RP1=0, select bank0
  5076  0DC4  0808               	movf	8,w	;volatile
  5077  0DC5  00F0               	movwf	??_LCDBusyLoop
  5078  0DC6  0870               	movf	??_LCDBusyLoop,w
  5079  0DC7  00F4               	movwf	LCDBusyLoop@status
  5080  0DC8                     l1498:
  5081                           
  5082                           ;lcd_hd44780_pic16.c: 162:   status=status<<4;
  5083  0DC8  0874               	movf	LCDBusyLoop@status,w
  5084  0DC9  00F0               	movwf	??_LCDBusyLoop
  5085  0DCA  3003               	movlw	3
  5086  0DCB                     u1385:
  5087  0DCB  1003               	clrc
  5088  0DCC  0DF0               	rlf	??_LCDBusyLoop,f
  5089  0DCD  3EFF               	addlw	-1
  5090  0DCE  1D03               	skipz
  5091  0DCF  2DCB               	goto	u1385
  5092  0DD0  1003               	clrc
  5093  0DD1  0D70               	rlf	??_LCDBusyLoop,w
  5094  0DD2  00F1               	movwf	??_LCDBusyLoop+1
  5095  0DD3  0871               	movf	??_LCDBusyLoop+1,w
  5096  0DD4  00F4               	movwf	LCDBusyLoop@status
  5097  0DD5                     l1500:
  5098                           
  5099                           ;lcd_hd44780_pic16.c: 164:   _delay((unsigned long)((0.5)*(20000000/4000000.0)));
  5100  0DD5  2DD6               	nop2	;2 cycle nop
  5101  0DD6                     l1502:
  5102                           
  5103                           ;lcd_hd44780_pic16.c: 167:   (RD4=0);
  5104  0DD6  1283               	bcf	3,5	;RP0=0, select bank0
  5105  0DD7  1303               	bcf	3,6	;RP1=0, select bank0
  5106  0DD8  1208               	bcf	8,4	;volatile
  5107  0DD9                     l1504:
  5108                           
  5109                           ;lcd_hd44780_pic16.c: 168:   _delay((unsigned long)((1)*(20000000/4000000.0)));
  5110  0DD9  2DDA               	nop2	;2 cycle nop
  5111  0DDA  2DDB               	nop2	;2 cycle nop
  5112  0DDB  0000               	nop
  5113  0DDC                     l1506:
  5114                           
  5115                           ;lcd_hd44780_pic16.c: 170:   (RD4=1);
  5116  0DDC  1283               	bcf	3,5	;RP0=0, select bank0
  5117  0DDD  1303               	bcf	3,6	;RP1=0, select bank0
  5118  0DDE  1608               	bsf	8,4	;volatile
  5119  0DDF                     l1508:
  5120                           
  5121                           ;lcd_hd44780_pic16.c: 171:   _delay((unsigned long)((0.5)*(20000000/4000000.0)));
  5122  0DDF  2DE0               	nop2	;2 cycle nop
  5123  0DE0                     l1510:
  5124                           
  5125                           ;lcd_hd44780_pic16.c: 173:   temp=(PORTD>>0);
  5126  0DE0  1283               	bcf	3,5	;RP0=0, select bank0
  5127  0DE1  1303               	bcf	3,6	;RP1=0, select bank0
  5128  0DE2  0808               	movf	8,w	;volatile
  5129  0DE3  00F0               	movwf	??_LCDBusyLoop
  5130  0DE4  0870               	movf	??_LCDBusyLoop,w
  5131  0DE5  00F3               	movwf	LCDBusyLoop@temp
  5132  0DE6                     l1512:
  5133                           
  5134                           ;lcd_hd44780_pic16.c: 174:   temp&=0x0F;
  5135  0DE6  300F               	movlw	15
  5136  0DE7  00F0               	movwf	??_LCDBusyLoop
  5137  0DE8  0870               	movf	??_LCDBusyLoop,w
  5138  0DE9  05F3               	andwf	LCDBusyLoop@temp,f
  5139  0DEA                     l1514:
  5140                           
  5141                           ;lcd_hd44780_pic16.c: 176:   status=status|temp;
  5142  0DEA  0874               	movf	LCDBusyLoop@status,w
  5143  0DEB  0473               	iorwf	LCDBusyLoop@temp,w
  5144  0DEC  00F0               	movwf	??_LCDBusyLoop
  5145  0DED  0870               	movf	??_LCDBusyLoop,w
  5146  0DEE  00F4               	movwf	LCDBusyLoop@status
  5147  0DEF                     l1516:
  5148                           
  5149                           ;lcd_hd44780_pic16.c: 178:   busy=status & 0b10000000;
  5150  0DEF  0874               	movf	LCDBusyLoop@status,w
  5151  0DF0  3980               	andlw	128
  5152  0DF1  00F0               	movwf	??_LCDBusyLoop
  5153  0DF2  0870               	movf	??_LCDBusyLoop,w
  5154  0DF3  00F2               	movwf	LCDBusyLoop@busy
  5155  0DF4                     l1518:
  5156                           
  5157                           ;lcd_hd44780_pic16.c: 180:   _delay((unsigned long)((0.5)*(20000000/4000000.0)));
  5158  0DF4  2DF5               	nop2	;2 cycle nop
  5159  0DF5                     l1520:
  5160                           
  5161                           ;lcd_hd44780_pic16.c: 182:                 (RD4=0);
  5162  0DF5  1283               	bcf	3,5	;RP0=0, select bank0
  5163  0DF6  1303               	bcf	3,6	;RP1=0, select bank0
  5164  0DF7  1208               	bcf	8,4	;volatile
  5165  0DF8                     l1522:
  5166                           
  5167                           ;lcd_hd44780_pic16.c: 183:   _delay((unsigned long)((1)*(20000000/4000000.0)));
  5168  0DF8  2DF9               	nop2	;2 cycle nop
  5169  0DF9  2DFA               	nop2	;2 cycle nop
  5170  0DFA  0000               	nop
  5171  0DFB                     l1524:
  5172                           
  5173                           ;lcd_hd44780_pic16.c: 184:  }while(busy);
  5174  0DFB  0872               	movf	LCDBusyLoop@busy,w
  5175  0DFC  1D03               	btfss	3,2
  5176  0DFD  2DFF               	goto	u1391
  5177  0DFE  2E00               	goto	u1390
  5178  0DFF                     u1391:
  5179  0DFF  2DBE               	goto	l1492
  5180  0E00                     u1390:
  5181  0E00                     l29:
  5182                           
  5183                           ;lcd_hd44780_pic16.c: 186:  (RB2=0);
  5184  0E00  1283               	bcf	3,5	;RP0=0, select bank0
  5185  0E01  1303               	bcf	3,6	;RP1=0, select bank0
  5186  0E02  1106               	bcf	6,2	;volatile
  5187  0E03                     l1526:
  5188                           
  5189                           ;lcd_hd44780_pic16.c: 189:  TRISD&=(~(0x0F<<0));
  5190  0E03  30F0               	movlw	240
  5191  0E04  00F0               	movwf	??_LCDBusyLoop
  5192  0E05  0870               	movf	??_LCDBusyLoop,w
  5193  0E06  1683               	bsf	3,5	;RP0=1, select bank1
  5194  0E07  1303               	bcf	3,6	;RP1=0, select bank1
  5195  0E08  0588               	andwf	8,f	;volatile
  5196  0E09                     l30:
  5197  0E09  0008               	return
  5198  0E0A                     __end_of_LCDBusyLoop:
  5199                           
  5200                           	psect	text17
  5201  0C61                     __ptext17:	
  5202 ;; *************** function _ADCInit *****************
  5203 ;; Defined at:
  5204 ;;		line 7 in file "adc_pic16.c"
  5205 ;; Parameters:    Size  Location     Type
  5206 ;;		None
  5207 ;; Auto vars:     Size  Location     Type
  5208 ;;		None
  5209 ;; Return value:  Size  Location     Type
  5210 ;;                  1    wreg      void 
  5211 ;; Registers used:
  5212 ;;		wreg, status,2, status,0
  5213 ;; Tracked objects:
  5214 ;;		On entry : 0/0
  5215 ;;		On exit  : 0/0
  5216 ;;		Unchanged: 0/0
  5217 ;; Data sizes:     COMMON   BANK0   BANK1   BANK3   BANK2
  5218 ;;      Params:         0       0       0       0       0
  5219 ;;      Locals:         0       0       0       0       0
  5220 ;;      Temps:          0       0       0       0       0
  5221 ;;      Totals:         0       0       0       0       0
  5222 ;;Total ram usage:        0 bytes
  5223 ;; Hardware stack levels used: 1
  5224 ;; This function calls:
  5225 ;;		Nothing
  5226 ;; This function is called by:
  5227 ;;		_main
  5228 ;; This function uses a non-reentrant model
  5229 ;;
  5230                           
  5231                           
  5232                           ;psect for function _ADCInit
  5233  0C61                     _ADCInit:
  5234  0C61                     l2156:	
  5235                           ;incstack = 0
  5236                           ; Regs used in _ADCInit: [wreg+status,2+status,0]
  5237                           
  5238                           
  5239                           ;adc_pic16.c: 9:   ADCON1bits.ADFM=1;
  5240  0C61  1683               	bsf	3,5	;RP0=1, select bank1
  5241  0C62  1303               	bcf	3,6	;RP1=0, select bank1
  5242  0C63  179F               	bsf	31,7	;volatile
  5243  0C64                     l2158:
  5244                           
  5245                           ;adc_pic16.c: 14:   ADCON1bits.PCFG=0x00;
  5246  0C64  30F0               	movlw	-16
  5247  0C65  059F               	andwf	31,f	;volatile
  5248                           
  5249                           ;adc_pic16.c: 17:   ADCON0bits.ADCS=0b10;
  5250  0C66  1283               	bcf	3,5	;RP0=0, select bank0
  5251  0C67  1303               	bcf	3,6	;RP1=0, select bank0
  5252  0C68  081F               	movf	31,w	;volatile
  5253  0C69  393F               	andlw	-193
  5254  0C6A  3880               	iorlw	128
  5255  0C6B  009F               	movwf	31	;volatile
  5256  0C6C                     l2160:
  5257                           
  5258                           ;adc_pic16.c: 18:   ADCON1bits.ADCS2=1;
  5259  0C6C  1683               	bsf	3,5	;RP0=1, select bank1
  5260  0C6D  1303               	bcf	3,6	;RP1=0, select bank1
  5261  0C6E  171F               	bsf	31,6	;volatile
  5262  0C6F                     l2162:
  5263                           
  5264                           ;adc_pic16.c: 21:   ADCON0bits.ADON=1;
  5265  0C6F  1283               	bcf	3,5	;RP0=0, select bank0
  5266  0C70  1303               	bcf	3,6	;RP1=0, select bank0
  5267  0C71  141F               	bsf	31,0	;volatile
  5268  0C72                     l84:
  5269  0C72  0008               	return
  5270  0C73                     __end_of_ADCInit:
  5271  007E                     btemp	set	126	;btemp
  5272  007E                     wtemp0	set	126
  5273                           
  5274                           	psect	idloc
  5275                           
  5276                           ;Config register IDLOC0 @ 0x2000
  5277                           ;	unspecified, using default values
  5278  2000                     	org	8192
  5279  2000  3FFF               	dw	16383
  5280                           
  5281                           ;Config register IDLOC1 @ 0x2001
  5282                           ;	unspecified, using default values
  5283  2001                     	org	8193
  5284  2001  3FFF               	dw	16383
  5285                           
  5286                           ;Config register IDLOC2 @ 0x2002
  5287                           ;	unspecified, using default values
  5288  2002                     	org	8194
  5289  2002  3FFF               	dw	16383
  5290                           
  5291                           ;Config register IDLOC3 @ 0x2003
  5292                           ;	unspecified, using default values
  5293  2003                     	org	8195
  5294  2003  3FFF               	dw	16383
  5295                           
  5296                           	psect	config
  5297                           
  5298                           ;Config register CONFIG @ 0x2007
  5299                           ;	Oscillator Selection bits
  5300                           ;	FOSC = HS, HS oscillator
  5301                           ;	Watchdog Timer Enable bit
  5302                           ;	WDTE = OFF, WDT disabled
  5303                           ;	Power-up Timer Enable bit
  5304                           ;	PWRTE = OFF, PWRT disabled
  5305                           ;	Brown-out Reset Enable bit
  5306                           ;	BOREN = ON, BOR enabled
  5307                           ;	Low-Voltage (Single-Supply) In-Circuit Serial Programming Enable bit
  5308                           ;	LVP = ON, RB3/PGM pin has PGM function; low-voltage programming enabled
  5309                           ;	Data EEPROM Memory Code Protection bit
  5310                           ;	CPD = OFF, Data EEPROM code protection off
  5311                           ;	Flash Program Memory Write Enable bits
  5312                           ;	WRT = OFF, Write protection off; all program memory may be written to by EECON control
  5313                           ;	In-Circuit Debugger Mode bit
  5314                           ;	DEBUG = 0x1, unprogrammed default
  5315                           ;	Flash Program Memory Code Protection bit
  5316                           ;	CP = OFF, Code protection off
  5317  2007                     	org	8199
  5318  2007  3FFA               	dw	16378

Data Sizes:
    Strings     16
    Constant    0
    Data        64
    BSS         5
    Persistent  0
    Stack       0

Auto Spaces:
    Space          Size  Autos    Used
    COMMON           14     14      14
    BANK0            80     70      75
    BANK1            80      0      64
    BANK3            96      0       0
    BANK2            96      0       0

Pointer List with Targets:

    LCDWriteString@msg	PTR const unsigned char  size(1) Largest target is 12
		 -> STR_2(CODE[4]), STR_1(CODE[12]), 


Critical Paths under _main in COMMON

    _main->_LCDGotoXY
    _main->_LCDInit
    _LM35ReadTemp->___xxtofl
    ___flmul->___xxtofl
    ___fldiv->___xxtofl
    _LCDWriteString->_LCDByte
    _LCDWriteInt->_LCDByte
    _LCDInit->_LCDByte
    _LCDGotoXY->_LCDByte
    _LCDByte->_LCDBusyLoop

Critical Paths under _main in BANK0

    _main->_LM35ReadTemp
    _LM35ReadTemp->___flmul
    ___flmul->___fldiv

Critical Paths under _main in BANK1

    None.

Critical Paths under _main in BANK3

    None.

Critical Paths under _main in BANK2

    None.

Call Graph Tables:

 ---------------------------------------------------------------------------------
 (Depth) Function   	        Calls       Base Space   Used Autos Params    Refs
 ---------------------------------------------------------------------------------
 (0) _main                                                 7     7      0   12796
                                             63 BANK0      7     7      0
                            _ADCInit
                            _LCDByte
                          _LCDGotoXY
                            _LCDInit
                        _LCDWriteInt
                     _LCDWriteString
                       _LM35ReadTemp
                            ___fltol
 ---------------------------------------------------------------------------------
 (1) ___fltol                                             11     7      4     305
                                              0 COMMON    11     7      4
 ---------------------------------------------------------------------------------
 (1) _LM35ReadTemp                                        11     7      4    4517
                                             52 BANK0     11     7      4
                            _ReadADC
                            ___fldiv
                            ___flmul
                            ___lwdiv
                           ___xxtofl
 ---------------------------------------------------------------------------------
 (2) ___xxtofl                                            14    10      4     398
                                              0 COMMON    14    10      4
 ---------------------------------------------------------------------------------
 (2) ___lwdiv                                              8     4      4     314
                                              0 COMMON     8     4      4
 ---------------------------------------------------------------------------------
 (2) ___flmul                                             26    18      8    2417
                                             26 BANK0     26    18      8
                          __Umul8_16
                            ___fldiv (ARG)
                           ___xxtofl (ARG)
 ---------------------------------------------------------------------------------
 (3) __Umul8_16                                            9     7      2     799
                                              0 COMMON     9     7      2
 ---------------------------------------------------------------------------------
 (2) ___fldiv                                             26    18      8    1273
                                              0 BANK0     26    18      8
                           ___xxtofl (ARG)
 ---------------------------------------------------------------------------------
 (2) _ReadADC                                              4     2      2      44
                                              0 COMMON     4     2      2
 ---------------------------------------------------------------------------------
 (1) _LCDWriteString                                       3     3      0    1432
                                             12 COMMON     1     1      0
                                              0 BANK0      2     2      0
                            _LCDByte
 ---------------------------------------------------------------------------------
 (1) _LCDWriteInt                                         15    12      3    2605
                                              0 BANK0     15    12      3
                            _LCDByte
                            ___awdiv
                            ___awmod
                            ___fltol (ARG)
 ---------------------------------------------------------------------------------
 (2) ___awmod                                              7     3      4     448
                                              0 COMMON     7     3      4
 ---------------------------------------------------------------------------------
 (2) ___awdiv                                              9     5      4     452
                                              0 COMMON     9     5      4
 ---------------------------------------------------------------------------------
 (1) _LCDInit                                              4     4      0    1394
                                             12 COMMON     2     2      0
                                              0 BANK0      2     2      0
                        _LCDBusyLoop
                            _LCDByte
 ---------------------------------------------------------------------------------
 (1) _LCDGotoXY                                            4     3      1    1333
                                             12 COMMON     2     1      1
                                              0 BANK0      2     2      0
                            _LCDByte
 ---------------------------------------------------------------------------------
 (2) _LCDByte                                              7     6      1    1187
                                              5 COMMON     7     6      1
                        _LCDBusyLoop
 ---------------------------------------------------------------------------------
 (3) _LCDBusyLoop                                          5     5      0     117
                                              0 COMMON     5     5      0
 ---------------------------------------------------------------------------------
 (1) _ADCInit                                              0     0      0       0
 ---------------------------------------------------------------------------------
 Estimated maximum stack depth 3
 ---------------------------------------------------------------------------------

 Call Graph Graphs:

 _main (ROOT)
   _ADCInit
   _LCDByte
     _LCDBusyLoop
   _LCDGotoXY
     _LCDByte
   _LCDInit
     _LCDBusyLoop
     _LCDByte
   _LCDWriteInt
     _LCDByte
     ___awdiv
     ___awmod
     ___fltol (ARG)
   _LCDWriteString
     _LCDByte
   _LM35ReadTemp
     _ReadADC
     ___fldiv
       ___xxtofl (ARG)
     ___flmul
       __Umul8_16
       ___fldiv (ARG)
       ___xxtofl (ARG)
     ___lwdiv
     ___xxtofl
   ___fltol

 Address spaces:
Name               Size   Autos  Total    Cost      Usage
BANK3               60      0       0       9        0.0%
BITBANK3            60      0       0       8        0.0%
SFR3                 0      0       0       4        0.0%
BITSFR3              0      0       0       4        0.0%
BANK2               60      0       0      11        0.0%
BITBANK2            60      0       0      10        0.0%
SFR2                 0      0       0       5        0.0%
BITSFR2              0      0       0       5        0.0%
BANK1               50      0      40       7       80.0%
BITBANK1            50      0       0       6        0.0%
SFR1                 0      0       0       2        0.0%
BITSFR1              0      0       0       2        0.0%
BANK0               50     46      4B       5       93.8%
BITBANK0            50      0       0       4        0.0%
SFR0                 0      0       0       1        0.0%
BITSFR0              0      0       0       1        0.0%
COMMON               E      E       E       1      100.0%
BITCOMMON            E      0       0       0        0.0%
CODE                 0      0       0       0        0.0%
DATA                 0      0      99      12        0.0%
ABS                  0      0      99       3        0.0%
NULL                 0      0       0       0        0.0%
STACK                0      0       0       2        0.0%
EEDATA             100      0       0       0        0.0%


Microchip Technology PIC Macro Assembler V2.32 build 20210201212658 
Symbol Table                                                                                   Fri Feb 04 20:10:37 2022

           ?_LCDBusyLoop 0070             ___fldiv@aexp 0039             ___fldiv@bexp 0038  
                      pc 0002             ___fldiv@sign 0031                       l30 0E09  
                     l23 0D81                       l24 0D84                       l25 0DB2  
                     l35 0EC6                       l29 0E00                       l61 01F0  
                     l45 0FFF                       l65 0CE1                       l58 01C6  
                     l84 0C72                       l68 0CD9                       l69 0CB5  
                     l88 002D                       l89 0023                       l98 0146  
           ___awdiv@sign 0076                       fsr 0004      __Umul8_16@word_mpld 0076  
                    l401 0092                      l404 00A7                      l361 0F92  
                    l603 0754                      l374 0E62                      l616 0C9A  
                    l480 0D65                      l609 07DC                      l641 0213  
                    l618 0CAC                      l394 00A7                      l643 02AA  
                    l581 047B                      l573 03F9                      l557 0307  
                    l654 0274                      l559 0487                      l655 0280  
                    l647 0258                      l579 046B                      l597 07E8  
                    _RB1 0031                      _RB2 0032                      _RD4 0044  
                    fsr0 0004          __end_of_ADCInit 0C73                      indf 0000  
           ___awmod@sign 0076    LM35ReadTemp@adc_value 005D             ___flmul@aexp 004C  
           ___flmul@bexp 004D             ___flmul@sign 0047             ___flmul@temp 0052  
           ___flmul@prod 004E  LCDWriteInt@field_length 0022          __end_of_LCDByte 0DB3  
        __end_of_LCDInit 0EC7             ?_LCDWriteInt 0020              LCDByte@temp 007B  
           ___fltol@exp1 007A                     l2000 024F                     l2010 0282  
                   l2002 025F                     l2100 0156                     l2012 0298  
                   l2004 026A                     l2030 0E76                     l2022 0E66  
                   l2110 0183                     l2102 0158                     l2014 029D  
                   l2006 026E                     l2040 0E80                     l2032 0E77  
                   l2024 0E6E                     l2120 01A8                     l2112 0196  
                   l2104 015C                     l2016 02A1                     l2008 0278  
                   l2050 0E8B                     l2042 0E81                     l2034 0E7D  
                   l2026 0E74                     l2130 01D8                     l2122 01AE  
                   l2106 0164                     l2114 019C                     l2018 02A2  
                   l2210 0087                     l2202 006E                     l1500 0DD5  
                   l2140 0CB7                     l2060 0EAB                     l2052 0E8E  
                   l2044 0E84                     l2036 0E7E                     l2028 0E75  
                   l2132 01E7                     l2124 01B8                     l2116 01A2  
                   l2108 016C                     l2212 0097                     l2204 0080  
                   l2220 0ED2                     l1510 0DE0                     l1502 0DD6  
                   l2142 0CBC                     l2070 0EC0                     l2054 0E93  
                   l2046 0E85                     l2038 0E7F                     l2126 01CA  
                   l2214 009C                     l2230 0F1A                     l2222 0EDF  
                   l2160 0C6C                     l1520 0DF5                     l1512 0DE6  
                   l1504 0DD9                     l2136 0CAE                     l2056 0E9A  
                   l2048 0E88                     l1600 0F41                     l2080 0FB2  
                   l2072 0F96                     l2224 0EEE                     l2216 0EC7  
                   l2162 0C6F                     l1522 0DF8                     l1514 0DEA  
                   l1506 0DDC                     l2146 0CC1                     l2066 0EAE  
                   l2058 0EA4                     l1610 0F57                     l1602 0F45  
                   l2082 0FB6                     l2090 0FDF                     l2074 0F97  
                   l1530 0C89                     l2170 00D0                     l2226 0EF6  
                   l2218 0ECD                     l2156 0C61                     l1524 0DFB  
                   l1516 0DEF                     l1508 0DDF                     l2148 0CDA  
                   l2068 0EBA                     l1620 0F77                     l1612 0F5B  
                   l1604 0F47                     l2092 0FED                     l2084 0FBD  
                   l2076 0FA3                     l1700 02B8                     l1532 0C90  
                   l2172 00DE                     l2164 00A8                     l2180 002E  
                   l2228 0F14                     l2158 0C64                     l1526 0E03  
                   l1518 0DF4                     l1550 0D88                     l1542 0D67  
                   l2262 0CCB                     l1622 0F7E                     l1614 0F5F  
                   l1606 0F4D                     l2086 0FC6                     l2078 0FA7  
                   l2094 0FF3                     l1710 02CF                     l1702 02BC  
                   l1534 0C94                     l2174 00FA                     l2166 00B4  
                   l2190 0058                     l2182 0039                     l1560 0D99  
                   l1552 0D8E                     l1544 0D73                     l1616 0F70  
                   l1608 0F50                     l1624 0F84                     l1640 0E16  
                   l1632 0E0A                     l2096 0147                     l2088 0FCE  
                   l1800 03E2                     l1720 02E5                     l1712 02D0  
                   l1704 02BD                     l1536 0CA3                     l1528 0C87  
                   l2176 013E                     l2168 00BB                     l2192 0060  
                   l1490 0DBD                     l1482 0DB3                     l1570 0DAD  
                   l1562 0D9C                     l1554 0D90                     l1546 0D78  
                   l1626 0F89                     l1618 0F76                     l1650 0E2F  
                   l1642 0E1A                     l1634 0E0B                     l2098 0150  
                   l1810 0411                     l1802 03F6                     l1730 02FC  
                   l1722 02E9                     l1706 02C2                     l1714 02D2  
                   l1538 0CA8                     l2194 0062                     l2186 0042  
                   l1492 0DBE                     l1484 0DB3                     l1564 0DA4  
                   l1556 0D93                     l1548 0D7D                     l1628 0F8E  
                   l1660 0E4E                     l1652 0E33                     l1644 0E1F  
                   l1636 0E0F                     l1580 001B                     l1572 0006  
                   l1820 044F                     l1812 0415                     l1740 031F  
                   l1732 02FD                     l1724 02EA                     l1716 02DA  
                   l1708 02C7                     l1900 05C8                     l2196 0066  
                   l2188 0057                     l1494 0DC1                     l1486 0DB9  
                   l1566 0DA7                     l1558 0D96                     l1590 0F2D  
                   l1654 0E37                     l1646 0E25                     l1662 0E54  
                   l1638 0E14                     l1582 0020                     l1574 000C  
                   l1830 0475                     l1822 045E                     l1814 042E  
                   l1806 03FE                     l1750 0336                     l1726 02EF  
                   l1734 02FF                     l1718 02DF                     l1910 0648  
                   l1902 05E5                     l1670 0D22                     l1496 0DC2  
                   l1488 0DBC                     l1568 0DAA                     l1592 0F31  
                   l1664 0E59                     l1656 0E41                     l1648 0E28  
                   l1584 0027                     l1832 0477                     l1824 0462  
                   l1808 0403                     l1816 0434                     l1760 0362  
                   l1752 0348                     l1736 030F                     l1744 0328  
                   l1728 02F4                     l1920 0700                     l1912 0675  
                   l1904 05F5                     l1840 048F                     l1680 0D38  
                   l1672 0D24                     l1498 0DC8                     l1594 0F36  
                   l1666 0E5E                     l1658 0E47                     l1578 000F  
                   l1826 046A                     l1818 0441                     l1762 0367  
                   l1770 0387                     l1754 0350                     l1746 032D  
                   l1738 031B                     l1930 0725                     l1922 0709  
                   l1914 0685                     l1906 0612                     l1850 04A4  
                   l1842 0495                     l1690 0D5B                     l1682 0D3C  
                   l1674 0D2A                     l1596 0F38                     l1588 0F2C  
                   l1828 0471                     l1780 03B2                     l1772 0399  
                   l1764 0379                     l1756 0358                     l1940 073D  
                   l1932 072E                     l1924 0717                     l1916 06B2  
                   l1908 062B                     l1860 04C1                     l1852 04AC  
                   l1844 0499                     l1684 0D4D                     l1676 0D2D  
                   l1692 0D61                     l1598 0F3C                     l1790 03CA  
                   l1782 03BA                     l1774 039A                     l1766 037D  
                   l1758 0360                     l1950 076C                     l1942 0751  
                   l1926 0720                     l1934 0734                     l1918 06D8  
                   l1870 04D8                     l1862 04C5                     l1854 04AE  
                   l1846 049A                     l1838 0488                     l1686 0D53  
                   l1678 0D34                     l1792 03D3                     l1784 03BC  
                   l1776 03A8                     l1768 037E                     l1696 02AB  
                   l1960 07A7                     l1952 0770                     l1936 0738  
                   l1928 0724                     l1872 04DA                     l1864 04C6  
                   l1856 04B6                     l1848 049F                     l1688 0D54  
                   l1786 03C5                     l1794 03D9                     l1778 03AC  
                   l1698 02B2                     l1970 07D4                     l1962 07B6  
                   l1954 0789                     l1946 0759                     l1938 0739  
                   l1890 054B                     l1882 04F5                     l1874 04E2  
                   l1866 04CB                     l1858 04BB                     l1796 03DD  
                   l1788 03C9                     l1972 07D5                     l1964 07C0  
                   l1948 075E                     l1956 078F                     l1892 0577  
                   l1884 0505                     l1876 04E7                     l1868 04D0  
                   l1980 01F7                     l1798 03DE                     l1974 07E0  
                   l1966 07C2                     l1958 079C                     l1894 0593  
                   l1886 0512                     l1878 04EC                     l1990 0224  
                   l1982 01FB                     l1968 07D0                     l1896 05AF  
                   l1888 052F                     l1992 0229                     l1984 020B  
                   l1898 05B8                     l1994 0236                     l1986 021B  
                   l1978 01F2                     l1996 023D                     l1998 0241  
                   STR_1 0806                     STR_2 0812                     u2000 045E  
                   u2001 045D                     u2010 0475                     u2011 0474  
                   u2020 0499                     u2005 045A                     u2101 053D  
                   u2021 0498                     u2102 0544                     u2030 049F  
                   u2111 0559                     u2103 054B                     u2031 049E  
                   u1400 0C94                     u2112 0560                     u2040 04A4  
                   u1401 0C93                     u2201 0694                     u2121 0585  
                   u2113 0567                     u2041 04A3                     u2210 06BE  
                   u2202 069B                     u2122 058C                     u2050 04C5  
                   u2203 06A2                     u2131 05A1                     u2123 0593  
                   u2051 04C4                     u1420 0CA8                     u2300 073D  
                   u2132 05A8                     u2060 04CB                     u1421 0CA7  
                   u2301 073C                     u2221 06CA                     u2133 05AF  
                   u2061 04CA                     u1510 0F5F                     u2310 0751  
                   u2230 06E6                     u2222 06D1                     u2070 04D0  
                   u1511 0F5E                     u1415 0C9B                     u2311 0750  
                   u2223 06D8                     u2215 06B9                     u2151 05D7  
                   u2071 04CF                     u1440 0D7D                     u2320 0758  
                   u2152 05DE                     u2080 04E7                     u2400 01FB  
                   u1441 0D7C                     u1505 0F51                     u2321 0757  
                   u2241 06F2                     u2161 0604                     u2153 05E5  
                   u2145 05B1                     u2081 04E6                     u2401 01FA  
                   u1530 0F70                     u1610 0E37                     u1450 000C  
                   u2330 075E                     u2242 06F9                     u2162 060B  
                   u2090 04EC                     u2410 021B                     u1435 0D6A  
                   u1531 0F6F                     u1611 0E36                     u1451 000B  
                   u2331 075D                     u2243 0700                     u2235 06E1  
                   u2163 0612                     u2091 04EB                     u2411 021A  
                   u1620 0E41                     u1460 0027                     u2340 0770  
                   u1700 0D4D                     u2500 028D                     u1525 0F60  
                   u1621 0E40                     u1605 0E29                     u1461 0026  
                   u2341 076F                     u2181 063A                     u1701 0D4C  
                   u1390 0E00                     u1550 0F84                     u1470 0F31  
                   u2350 077F                     u2270 0724                     u2182 0641  
                   u2510 029D                     u2430 023C                     u1391 0DFF  
                   u1551 0F83                     u1535 0F6C                     u1471 0F30  
                   u2271 0723                     u2255 0702                     u2191 0667  
                   u2183 0648                     u2175 0614                     u2511 029C  
                   u2431 023B                     u1560 0F89                     u1480 0F3C  
                   u1640 0E54                     u2600 01A2                     u1800 032D  
                   u2360 079C                     u2192 066E                     u1720 0D61  
                   u2520 02A1                     u1385 0DCB                     u1561 0F88  
                   u1545 0F78                     u1481 0F3B                     u1641 0E53  
                   u1625 0E3D                     u2601 01A1                     u1801 032C  
                   u2361 079B                     u2265 0719                     u2193 0675  
                   u1721 0D60                     u1705 0D49                     u2521 02A0  
                   u2505 0288                     u2425 022E                     u2530 0EC6  
                   u1490 0F4D                     u1650 0E59                     u1570 0E0F  
                   u2610 01A7                     u1810 0367                     u1730 02BC  
                   u2370 07B6                     u2290 0738                     u2450 025E  
                   u2531 0EC5                     u1491 0F4C                     u1651 0E58  
                   u1635 0E48                     u1571 0E0E                     u2611 01A6  
                   u1811 0366                     u1731 02BB                     u2371 07B5  
                   u2355 077A                     u2291 0737                     u1715 0D55  
                   u2451 025D                     u1580 0E1A                     u2620 01B7  
                   u2540 0FA3                     u1900 03C9                     u1740 02C2  
                   u2380 07D4                     u1660 0D2A                     u2700 007F  
                   u1581 0E19                     u2621 01B6                     u2541 0FA2  
                   u1901 03C8                     u1741 02C1                     u2381 07D3  
                   u2365 0798                     u2285 0727                     u1661 0D29  
                   u2445 0250                     u2701 007E                     u1590 0E25  
                   u2630 01D7                     u2550 0FB6                     u1750 02C7  
                   u2470 026E                     u2390 01F7                     u2710 0086  
                   u1591 0E24                     u2631 01D6                     u2551 0FB5  
                   u1751 02C6                     u2375 07B2                     u2471 026D  
                   u2391 01F6                     u2711 0085                     u2640 0CB4  
                   u2560 0FBD                     u1920 03DD                     u1840 037D  
                   u1760 02E9                     u1680 0D3C                     u2480 0274  
                   u2641 0CB3                     u2561 0FBC                     u1921 03DC  
                   u1841 037C                     u1825 0369                     u1761 02E8  
                   u1681 0D3B                     u2481 0273                     u2465 0263  
                   u2570 0FFF                     u1930 03E2                     u1770 02EF  
                   u2490 0278                     u2730 0097                     u2650 0039  
                   u2635 01D3                     u2571 0FFE                     u1931 03E1  
                   u1915 03CC                     u1835 0372                     u1771 02EE  
                   u1675 0D2E                     u2491 0277                     u2731 0096  
                   u2651 0038                     u2580 014B                     u1940 03F6  
                   u1860 0399                     u1780 02F4                     u2740 009C  
                   u2660 0050                     u1941 03F5                     u1861 0398  
                   u1781 02F3                     u2741 009B                     u2725 0089  
                   u2590 015C                     u1950 03FD                     u1870 03B2  
                   u1790 030F                     u2670 0066                     u2807 0E6A  
                   u2591 015B                     u1951 03FC                     u1871 03B1  
                   u1855 0380                     u1791 030E                     u1695 0D3D  
                   u2671 0065                     u1960 0403                     u1880 03BA  
                   u2680 006D                     u1961 0402                     u1881 03B9  
                   u1865 0395                     u2681 006C                     u2665 004B  
                   u1970 0415                     u1971 0414                     u1980 0424  
                   u2757 0F22                     u1990 0441                     u1991 0440  
                   u1895 03BE                     u2767 00B8                     u2695 006F  
                   u1985 041F                     u2777 00CD                     u1995 043D  
                   u2787 00E2                     u2797 001D                     _main 0EC7  
     __size_of_LCDGotoXY 0035                     btemp 007E                     start 0000  
        ___fldiv@new_exp 0032          __end_of_ReadADC 002E            ___fltol@sign1 0079  
                  ?_main 0070          __end_of___fldiv 0488          __end_of___awdiv 0F93  
        __end_of___awmod 0E63          __end_of___flmul 07E9          __end_of___fltol 00A8  
           LCDInit@style 0020          ___awdiv@divisor 0070          __end_of___lwdiv 0D66  
        ___awdiv@counter 0075                    _PORTD 0008                    _TRISD 0088  
                  main@t 0062     __end_of_LM35ReadTemp 0147                    pclath 000A  
                  status 0003                    wtemp0 007E          __initialization 07E9  
           __end_of_main 0F2C                ??_ADCInit 0070                   ??_main 005F  
      __end_of_LCDGotoXY 0CE2            LCDByte@isdata 0075                ??_LCDByte 0076  
              ??_LCDInit 007C                   _ADRESH 001E                   _ADRESL 009E  
       ___awdiv@dividend 0072         __end_of___xxtofl 02AB                ??_ReadADC 0072  
         _LCDWriteString 0F93                ??___fldiv 0028                ??___awdiv 0074  
              ??___awmod 0074                ??___flmul 0042                ??___fltol 0074  
              ??___lwdiv 0074     __size_of_LCDBusyLoop 0057         ___awdiv@quotient 0077  
        ___awmod@divisor 0070          ___awmod@counter 0075       __size_of__Umul8_16 0027  
           LCDWriteInt@i 002D             LCDWriteInt@j 002B             ___xxtofl@arg 007A  
           ___xxtofl@exp 0079             ___xxtofl@val 0070     __size_of_LCDWriteInt 00AA  
__end_of__initialization 07FC   __end_of_LCDWriteString 1000               ___fltol@f1 0070  
              LCDByte@hn 0078                LCDByte@ln 0079           __pcstackCOMMON 0070  
           __pidataBANK1 0CE2    __size_of_LM35ReadTemp 009F               __pbssBANK0 0066  
        ?_LCDWriteString 0070        __end_of__Umul8_16 0CAD               __pmaintext 0EC7  
                _ADCInit 0C61             _LM35ReadTemp 00A8                  _LCDByte 0D66  
                _LCDInit 0E63                ?___xxtofl 0070               __stringtab 0800  
                _ReadADC 0005                  ___cgram 00A0                  ___fldiv 02AB  
                ___awdiv 0F2C                  ___awmod 0E0A                  ___flmul 0488  
                ___fltol 002E                  ___lwdiv 0D22                  __ptext1 002E  
                __ptext2 00A8                  __ptext3 01F1                  __ptext4 0D22  
                __ptext5 0488                  __ptext6 0C86                  __ptext7 02AB  
                __ptext8 0005                  __ptext9 0F93               ??___xxtofl 0074  
       ___awmod@dividend 0072                _LCDGotoXY 0CAD     end_of_initialization 07FC  
      LCDWriteString@msg 0021            ___xxtofl@sign 0078                _TRISBbits 0086  
              _TRISDbits 0088               ?_LCDGotoXY 007C              ___fldiv@grs 0034  
            ___fldiv@rem 002D                ReadADC@ch 0073              ___flmul@grs 0048  
             LCDInit@__i 0021               LCDGotoXY@x 007D               LCDGotoXY@y 007C  
          ??_LCDBusyLoop 0070      start_initialization 07E9            ??_LCDWriteInt 0023  
       ??_LCDWriteString 007C               init_fetch0 0C73                __Umul8_16 0C86  
            __pdataBANK1 00A0                 ?_ADCInit 0070      __end_of_LCDBusyLoop 0E0A  
               ?_LCDByte 0075                 ?_LCDInit 0070                ___fldiv@a 0020  
              ___fldiv@b 0024                ___flmul@a 003E                ___flmul@b 003A  
               LCDByte@c 007A                ___latbits 0002            __pcstackBANK0 0020  
            ??_LCDGotoXY 0020        __size_of___xxtofl 00BA                 ?_ReadADC 0070  
    __end_of_LCDWriteInt 01F1            LM35ReadTemp@t 0059         ___lwdiv@dividend 0072  
               ?___fldiv 0020                 ?___awdiv 0070                 ?___awmod 0070  
               ?___flmul 003A                 ?___fltol 0070               ?__Umul8_16 0070  
               ?___lwdiv 0070                __pstrings 0800          LCDBusyLoop@busy 0072  
        LCDBusyLoop@temp 0073         ___lwdiv@quotient 0075              _LCDBusyLoop 0DB3  
       LCDWriteString@cc 0020         __size_of_ADCInit 0012               _ADCON0bits 001F  
            __stringbase 0805               _ADCON1bits 009F         __size_of_LCDByte 004D  
       __size_of_LCDInit 0064              _LCDWriteInt 0147         __size_of_ReadADC 0029  
            ??__Umul8_16 0072         __size_of___fldiv 01DD         __size_of___awdiv 0067  
       __size_of___awmod 0059         __size_of___flmul 0361         __size_of___fltol 007A  
      LCDBusyLoop@status 0074         __size_of___lwdiv 0044       __end_of__stringtab 0806  
        LCDWriteInt@F912 0066                 ___xxtofl 01F1          ___lwdiv@divisor 0070  
        ___lwdiv@counter 0077                 __ptext10 0147                 __ptext11 0E0A  
               __ptext12 0F2C                 __ptext13 0E63                 __ptext14 0CAD  
               __ptext15 0D66                 __ptext16 0DB3                 __ptext17 0C61  
          __size_of_main 0065            ?_LM35ReadTemp 0054                 init_ram0 0C77  
         LCDWriteInt@val 0020           LCDWriteInt@str 0026                stringcode 0800  
         ??_LM35ReadTemp 0058   __Umul8_16@multiplicand 0070                 stringdir 0800  
               stringtab 0800     __Umul8_16@multiplier 0078        __Umul8_16@product 0074  
__size_of_LCDWriteString 006D  
